	.file	"sequence_sum.cpp"
# GNU C++20 (GCC) version 11.3.0 (x86_64-unknown-linux-gnu)
#	compiled by GNU C version 11.3.0, GMP version 6.2.1, MPFR version 4.1.0, MPC version 1.2.1, isl version isl-0.24-GMP

# GGC heuristics: --param ggc-min-expand=100 --param ggc-min-heapsize=131072
# options passed: -mtune=generic -march=x86-64 -O0 -std=c++20
	.text
	.section	.text._ZSt21is_constant_evaluatedv,"axG",@progbits,_ZSt21is_constant_evaluatedv,comdat
	.weak	_ZSt21is_constant_evaluatedv
	.type	_ZSt21is_constant_evaluatedv, @function
_ZSt21is_constant_evaluatedv:
.LFB15:
	.cfi_startproc
	pushq	%rbp	#
	.cfi_def_cfa_offset 16
	.cfi_offset 6, -16
	movq	%rsp, %rbp	#,
	.cfi_def_cfa_register 6
# /usr/include/c++/11.3.0/type_traits:3419:   { return __builtin_is_constant_evaluated(); }
	movl	$0, %eax	#, _1
# /usr/include/c++/11.3.0/type_traits:3419:   { return __builtin_is_constant_evaluated(); }
	popq	%rbp	#
	.cfi_def_cfa 7, 8
	ret	
	.cfi_endproc
.LFE15:
	.size	_ZSt21is_constant_evaluatedv, .-_ZSt21is_constant_evaluatedv
	.section	.text._ZnwmPv,"axG",@progbits,_ZnwmPv,comdat
	.weak	_ZnwmPv
	.type	_ZnwmPv, @function
_ZnwmPv:
.LFB219:
	.cfi_startproc
	pushq	%rbp	#
	.cfi_def_cfa_offset 16
	.cfi_offset 6, -16
	movq	%rsp, %rbp	#,
	.cfi_def_cfa_register 6
	movq	%rdi, -8(%rbp)	# D.12228, D.12228
	movq	%rsi, -16(%rbp)	# __p, __p
# /usr/include/c++/11.3.0/new:175: { return __p; }
	movq	-16(%rbp), %rax	# __p, _2
# /usr/include/c++/11.3.0/new:175: { return __p; }
	popq	%rbp	#
	.cfi_def_cfa 7, 8
	ret	
	.cfi_endproc
.LFE219:
	.size	_ZnwmPv, .-_ZnwmPv
	.section	.text._ZdlPvS_,"axG",@progbits,_ZdlPvS_,comdat
	.weak	_ZdlPvS_
	.type	_ZdlPvS_, @function
_ZdlPvS_:
.LFB221:
	.cfi_startproc
	pushq	%rbp	#
	.cfi_def_cfa_offset 16
	.cfi_offset 6, -16
	movq	%rsp, %rbp	#,
	.cfi_def_cfa_register 6
	movq	%rdi, -8(%rbp)	# D.12236, D.12236
	movq	%rsi, -16(%rbp)	# D.12237, D.12237
# /usr/include/c++/11.3.0/new:180: inline void operator delete  (void*, void*) _GLIBCXX_USE_NOEXCEPT { }
	nop	
	popq	%rbp	#
	.cfi_def_cfa 7, 8
	ret	
	.cfi_endproc
.LFE221:
	.size	_ZdlPvS_, .-_ZdlPvS_
	.section	.text._ZNKSt6chrono8durationIlSt5ratioILl1ELl1000000000EEE5countEv,"axG",@progbits,_ZNKSt6chrono8durationIlSt5ratioILl1ELl1000000000EEE5countEv,comdat
	.align 2
	.weak	_ZNKSt6chrono8durationIlSt5ratioILl1ELl1000000000EEE5countEv
	.type	_ZNKSt6chrono8durationIlSt5ratioILl1ELl1000000000EEE5countEv, @function
_ZNKSt6chrono8durationIlSt5ratioILl1ELl1000000000EEE5countEv:
.LFB1076:
	.cfi_startproc
	pushq	%rbp	#
	.cfi_def_cfa_offset 16
	.cfi_offset 6, -16
	movq	%rsp, %rbp	#,
	.cfi_def_cfa_register 6
	movq	%rdi, -8(%rbp)	# this, this
# /usr/include/c++/11.3.0/chrono:538: 	{ return __r; }
	movq	-8(%rbp), %rax	# this, tmp84
	movq	(%rax), %rax	# this_2(D)->__r, _3
# /usr/include/c++/11.3.0/chrono:538: 	{ return __r; }
	popq	%rbp	#
	.cfi_def_cfa 7, 8
	ret	
	.cfi_endproc
.LFE1076:
	.size	_ZNKSt6chrono8durationIlSt5ratioILl1ELl1000000000EEE5countEv, .-_ZNKSt6chrono8durationIlSt5ratioILl1ELl1000000000EEE5countEv
	.section	.text._ZNSt6chrono8durationIlSt5ratioILl1ELl1000000000EEEC1IlvEERKT_,"axG",@progbits,_ZNSt6chrono8durationIlSt5ratioILl1ELl1000000000EEEC1IlvEERKT_,comdat
	.align 2
	.weak	_ZNSt6chrono8durationIlSt5ratioILl1ELl1000000000EEEC1IlvEERKT_
	.type	_ZNSt6chrono8durationIlSt5ratioILl1ELl1000000000EEEC1IlvEERKT_, @function
_ZNSt6chrono8durationIlSt5ratioILl1ELl1000000000EEEC1IlvEERKT_:
.LFB1081:
	.cfi_startproc
	pushq	%rbp	#
	.cfi_def_cfa_offset 16
	.cfi_offset 6, -16
	movq	%rsp, %rbp	#,
	.cfi_def_cfa_register 6
	movq	%rdi, -8(%rbp)	# this, this
	movq	%rsi, -16(%rbp)	# __rep, __rep
# /usr/include/c++/11.3.0/chrono:522: 	  : __r(static_cast<rep>(__rep)) { }
	movq	-16(%rbp), %rax	# __rep, tmp83
	movq	(%rax), %rdx	# *__rep_5(D), _1
# /usr/include/c++/11.3.0/chrono:522: 	  : __r(static_cast<rep>(__rep)) { }
	movq	-8(%rbp), %rax	# this, tmp84
	movq	%rdx, (%rax)	# _1, this_3(D)->__r
# /usr/include/c++/11.3.0/chrono:522: 	  : __r(static_cast<rep>(__rep)) { }
	nop	
	popq	%rbp	#
	.cfi_def_cfa 7, 8
	ret	
	.cfi_endproc
.LFE1081:
	.size	_ZNSt6chrono8durationIlSt5ratioILl1ELl1000000000EEEC1IlvEERKT_, .-_ZNSt6chrono8durationIlSt5ratioILl1ELl1000000000EEEC1IlvEERKT_
	.section	.text._ZNKSt9type_infoeqERKS_,"axG",@progbits,_ZNKSt9type_infoeqERKS_,comdat
	.align 2
	.weak	_ZNKSt9type_infoeqERKS_
	.type	_ZNKSt9type_infoeqERKS_, @function
_ZNKSt9type_infoeqERKS_:
.LFB1433:
	.cfi_startproc
	pushq	%rbp	#
	.cfi_def_cfa_offset 16
	.cfi_offset 6, -16
	movq	%rsp, %rbp	#,
	.cfi_def_cfa_register 6
	subq	$16, %rsp	#,
	movq	%rdi, -8(%rbp)	# this, this
	movq	%rsi, -16(%rbp)	# __arg, __arg
# /usr/include/c++/11.3.0/typeinfo:122:       return ((__name == __arg.__name)
	movq	-8(%rbp), %rax	# this, tmp91
	movq	8(%rax), %rdx	# this_10(D)->__name, _1
# /usr/include/c++/11.3.0/typeinfo:122:       return ((__name == __arg.__name)
	movq	-16(%rbp), %rax	# __arg, tmp92
	movq	8(%rax), %rax	# __arg_11(D)->__name, _2
# /usr/include/c++/11.3.0/typeinfo:123: 	      || (__name[0] != '*' &&
	cmpq	%rax, %rdx	# _2, _1
	je	.L10	#,
# /usr/include/c++/11.3.0/typeinfo:123: 	      || (__name[0] != '*' &&
	movq	-8(%rbp), %rax	# this, tmp93
	movq	8(%rax), %rax	# this_10(D)->__name, _3
# /usr/include/c++/11.3.0/typeinfo:123: 	      || (__name[0] != '*' &&
	movzbl	(%rax), %eax	# *_3, _4
# /usr/include/c++/11.3.0/typeinfo:123: 	      || (__name[0] != '*' &&
	cmpb	$42, %al	#, _4
	je	.L11	#,
# /usr/include/c++/11.3.0/typeinfo:124: 		  __builtin_strcmp (__name, __arg.__name) == 0));
	movq	-16(%rbp), %rax	# __arg, tmp94
	movq	8(%rax), %rdx	# __arg_11(D)->__name, _5
# /usr/include/c++/11.3.0/typeinfo:124: 		  __builtin_strcmp (__name, __arg.__name) == 0));
	movq	-8(%rbp), %rax	# this, tmp95
	movq	8(%rax), %rax	# this_10(D)->__name, _6
# /usr/include/c++/11.3.0/typeinfo:124: 		  __builtin_strcmp (__name, __arg.__name) == 0));
	movq	%rdx, %rsi	# _5,
	movq	%rax, %rdi	# _6,
	call	strcmp@PLT	#
# /usr/include/c++/11.3.0/typeinfo:123: 	      || (__name[0] != '*' &&
	testl	%eax, %eax	# _7
	jne	.L11	#,
.L10:
# /usr/include/c++/11.3.0/typeinfo:123: 	      || (__name[0] != '*' &&
	movl	$1, %eax	#, iftmp.16_8
	jmp	.L12	#
.L11:
# /usr/include/c++/11.3.0/typeinfo:123: 	      || (__name[0] != '*' &&
	movl	$0, %eax	#, iftmp.16_8
.L12:
# /usr/include/c++/11.3.0/typeinfo:125:     }
	leave	
	.cfi_def_cfa 7, 8
	ret	
	.cfi_endproc
.LFE1433:
	.size	_ZNKSt9type_infoeqERKS_, .-_ZNKSt9type_infoeqERKS_
	.section	.text._ZNSt15__exception_ptr13exception_ptrC2EDn,"axG",@progbits,_ZNSt15__exception_ptr13exception_ptrC5EDn,comdat
	.align 2
	.weak	_ZNSt15__exception_ptr13exception_ptrC2EDn
	.type	_ZNSt15__exception_ptr13exception_ptrC2EDn, @function
_ZNSt15__exception_ptr13exception_ptrC2EDn:
.LFB1445:
	.cfi_startproc
	pushq	%rbp	#
	.cfi_def_cfa_offset 16
	.cfi_offset 6, -16
	movq	%rsp, %rbp	#,
	.cfi_def_cfa_register 6
	movq	%rdi, -8(%rbp)	# this, this
	movq	%rsi, -16(%rbp)	# D.32039, D.32039
# /usr/include/c++/11.3.0/bits/exception_ptr.h:113:       : _M_exception_object(nullptr)
	movq	-8(%rbp), %rax	# this, tmp82
	movq	$0, (%rax)	#, this_2(D)->_M_exception_object
# /usr/include/c++/11.3.0/bits/exception_ptr.h:114:       { }
	nop	
	popq	%rbp	#
	.cfi_def_cfa 7, 8
	ret	
	.cfi_endproc
.LFE1445:
	.size	_ZNSt15__exception_ptr13exception_ptrC2EDn, .-_ZNSt15__exception_ptr13exception_ptrC2EDn
	.weak	_ZNSt15__exception_ptr13exception_ptrC1EDn
	.set	_ZNSt15__exception_ptr13exception_ptrC1EDn,_ZNSt15__exception_ptr13exception_ptrC2EDn
	.section	.text._ZNSt15__exception_ptr13exception_ptrC2EOS0_,"axG",@progbits,_ZNSt15__exception_ptr13exception_ptrC5EOS0_,comdat
	.align 2
	.weak	_ZNSt15__exception_ptr13exception_ptrC2EOS0_
	.type	_ZNSt15__exception_ptr13exception_ptrC2EOS0_, @function
_ZNSt15__exception_ptr13exception_ptrC2EOS0_:
.LFB1448:
	.cfi_startproc
	pushq	%rbp	#
	.cfi_def_cfa_offset 16
	.cfi_offset 6, -16
	movq	%rsp, %rbp	#,
	.cfi_def_cfa_register 6
	movq	%rdi, -8(%rbp)	# this, this
	movq	%rsi, -16(%rbp)	# __o, __o
# /usr/include/c++/11.3.0/bits/exception_ptr.h:117:       : _M_exception_object(__o._M_exception_object)
	movq	-16(%rbp), %rax	# __o, tmp83
	movq	(%rax), %rdx	# __o_5(D)->_M_exception_object, _1
# /usr/include/c++/11.3.0/bits/exception_ptr.h:117:       : _M_exception_object(__o._M_exception_object)
	movq	-8(%rbp), %rax	# this, tmp84
	movq	%rdx, (%rax)	# _1, this_3(D)->_M_exception_object
# /usr/include/c++/11.3.0/bits/exception_ptr.h:118:       { __o._M_exception_object = nullptr; }
	movq	-16(%rbp), %rax	# __o, tmp85
	movq	$0, (%rax)	#, __o_5(D)->_M_exception_object
# /usr/include/c++/11.3.0/bits/exception_ptr.h:118:       { __o._M_exception_object = nullptr; }
	nop	
	popq	%rbp	#
	.cfi_def_cfa 7, 8
	ret	
	.cfi_endproc
.LFE1448:
	.size	_ZNSt15__exception_ptr13exception_ptrC2EOS0_, .-_ZNSt15__exception_ptr13exception_ptrC2EOS0_
	.weak	_ZNSt15__exception_ptr13exception_ptrC1EOS0_
	.set	_ZNSt15__exception_ptr13exception_ptrC1EOS0_,_ZNSt15__exception_ptr13exception_ptrC2EOS0_
	.section	.text._ZNSt15__exception_ptr13exception_ptraSEOS0_,"axG",@progbits,_ZNSt15__exception_ptr13exception_ptraSEOS0_,comdat
	.align 2
	.weak	_ZNSt15__exception_ptr13exception_ptraSEOS0_
	.type	_ZNSt15__exception_ptr13exception_ptraSEOS0_, @function
_ZNSt15__exception_ptr13exception_ptraSEOS0_:
.LFB1450:
	.cfi_startproc
	pushq	%rbp	#
	.cfi_def_cfa_offset 16
	.cfi_offset 6, -16
	movq	%rsp, %rbp	#,
	.cfi_def_cfa_register 6
	subq	$32, %rsp	#,
	movq	%rdi, -24(%rbp)	# this, this
	movq	%rsi, -32(%rbp)	# __o, __o
# /usr/include/c++/11.3.0/bits/exception_ptr.h:133:       operator=(exception_ptr&& __o) noexcept
	movq	%fs:40, %rax	# MEM[(<address-space-1> long unsigned int *)40B], tmp90
	movq	%rax, -8(%rbp)	# tmp90, D.192814
	xorl	%eax, %eax	# tmp90
# /usr/include/c++/11.3.0/bits/exception_ptr.h:135:         exception_ptr(static_cast<exception_ptr&&>(__o)).swap(*this);
	movq	-32(%rbp), %rdx	# __o, tmp84
	leaq	-16(%rbp), %rax	#, tmp85
	movq	%rdx, %rsi	# tmp84,
	movq	%rax, %rdi	# tmp85,
	call	_ZNSt15__exception_ptr13exception_ptrC1EOS0_	#
# /usr/include/c++/11.3.0/bits/exception_ptr.h:135:         exception_ptr(static_cast<exception_ptr&&>(__o)).swap(*this);
	movq	-24(%rbp), %rdx	# this, tmp86
	leaq	-16(%rbp), %rax	#, tmp87
	movq	%rdx, %rsi	# tmp86,
	movq	%rax, %rdi	# tmp87,
	call	_ZNSt15__exception_ptr13exception_ptr4swapERS0_	#
# /usr/include/c++/11.3.0/bits/exception_ptr.h:135:         exception_ptr(static_cast<exception_ptr&&>(__o)).swap(*this);
	leaq	-16(%rbp), %rax	#, tmp88
	movq	%rax, %rdi	# tmp88,
	call	_ZNSt15__exception_ptr13exception_ptrD1Ev	#
# /usr/include/c++/11.3.0/bits/exception_ptr.h:136:         return *this;
	movq	-24(%rbp), %rax	# this, _8
# /usr/include/c++/11.3.0/bits/exception_ptr.h:137:       }
	movq	-8(%rbp), %rdx	# D.192814, tmp91
	subq	%fs:40, %rdx	# MEM[(<address-space-1> long unsigned int *)40B], tmp91
	je	.L18	#,
	call	__stack_chk_fail@PLT	#
.L18:
	leave	
	.cfi_def_cfa 7, 8
	ret	
	.cfi_endproc
.LFE1450:
	.size	_ZNSt15__exception_ptr13exception_ptraSEOS0_, .-_ZNSt15__exception_ptr13exception_ptraSEOS0_
	.section	.text._ZNSt15__exception_ptr13exception_ptrC2ERKS0_,"axG",@progbits,_ZNSt15__exception_ptr13exception_ptrC5ERKS0_,comdat
	.align 2
	.weak	_ZNSt15__exception_ptr13exception_ptrC2ERKS0_
	.type	_ZNSt15__exception_ptr13exception_ptrC2ERKS0_, @function
_ZNSt15__exception_ptr13exception_ptrC2ERKS0_:
.LFB1456:
	.cfi_startproc
	pushq	%rbp	#
	.cfi_def_cfa_offset 16
	.cfi_offset 6, -16
	movq	%rsp, %rbp	#,
	.cfi_def_cfa_register 6
	subq	$16, %rsp	#,
	movq	%rdi, -8(%rbp)	# this, this
	movq	%rsi, -16(%rbp)	# __other, __other
# /usr/include/c++/11.3.0/bits/exception_ptr.h:190:     : _M_exception_object(__other._M_exception_object)
	movq	-16(%rbp), %rax	# __other, tmp84
	movq	(%rax), %rdx	# __other_7(D)->_M_exception_object, _1
# /usr/include/c++/11.3.0/bits/exception_ptr.h:190:     : _M_exception_object(__other._M_exception_object)
	movq	-8(%rbp), %rax	# this, tmp85
	movq	%rdx, (%rax)	# _1, this_5(D)->_M_exception_object
# /usr/include/c++/11.3.0/bits/exception_ptr.h:192:       if (_M_exception_object)
	movq	-8(%rbp), %rax	# this, tmp86
	movq	(%rax), %rax	# this_5(D)->_M_exception_object, _2
# /usr/include/c++/11.3.0/bits/exception_ptr.h:192:       if (_M_exception_object)
	testq	%rax, %rax	# _2
	je	.L21	#,
# /usr/include/c++/11.3.0/bits/exception_ptr.h:193: 	_M_addref();
	movq	-8(%rbp), %rax	# this, tmp87
	movq	%rax, %rdi	# tmp87,
	call	_ZNSt15__exception_ptr13exception_ptr9_M_addrefEv@PLT	#
.L21:
# /usr/include/c++/11.3.0/bits/exception_ptr.h:194:     }
	nop	
	leave	
	.cfi_def_cfa 7, 8
	ret	
	.cfi_endproc
.LFE1456:
	.size	_ZNSt15__exception_ptr13exception_ptrC2ERKS0_, .-_ZNSt15__exception_ptr13exception_ptrC2ERKS0_
	.weak	_ZNSt15__exception_ptr13exception_ptrC1ERKS0_
	.set	_ZNSt15__exception_ptr13exception_ptrC1ERKS0_,_ZNSt15__exception_ptr13exception_ptrC2ERKS0_
	.section	.text._ZNSt15__exception_ptr13exception_ptrD2Ev,"axG",@progbits,_ZNSt15__exception_ptr13exception_ptrD5Ev,comdat
	.align 2
	.weak	_ZNSt15__exception_ptr13exception_ptrD2Ev
	.type	_ZNSt15__exception_ptr13exception_ptrD2Ev, @function
_ZNSt15__exception_ptr13exception_ptrD2Ev:
.LFB1459:
	.cfi_startproc
	pushq	%rbp	#
	.cfi_def_cfa_offset 16
	.cfi_offset 6, -16
	movq	%rsp, %rbp	#,
	.cfi_def_cfa_register 6
	subq	$16, %rsp	#,
	movq	%rdi, -8(%rbp)	# this, this
# /usr/include/c++/11.3.0/bits/exception_ptr.h:200:       if (_M_exception_object)
	movq	-8(%rbp), %rax	# this, tmp83
	movq	(%rax), %rax	# this_4(D)->_M_exception_object, _1
# /usr/include/c++/11.3.0/bits/exception_ptr.h:200:       if (_M_exception_object)
	testq	%rax, %rax	# _1
	je	.L24	#,
# /usr/include/c++/11.3.0/bits/exception_ptr.h:201: 	_M_release();
	movq	-8(%rbp), %rax	# this, tmp84
	movq	%rax, %rdi	# tmp84,
	call	_ZNSt15__exception_ptr13exception_ptr10_M_releaseEv@PLT	#
.L24:
# /usr/include/c++/11.3.0/bits/exception_ptr.h:202:     }
	nop	
	leave	
	.cfi_def_cfa 7, 8
	ret	
	.cfi_endproc
.LFE1459:
	.size	_ZNSt15__exception_ptr13exception_ptrD2Ev, .-_ZNSt15__exception_ptr13exception_ptrD2Ev
	.weak	_ZNSt15__exception_ptr13exception_ptrD1Ev
	.set	_ZNSt15__exception_ptr13exception_ptrD1Ev,_ZNSt15__exception_ptr13exception_ptrD2Ev
	.section	.text._ZNSt15__exception_ptr13exception_ptr4swapERS0_,"axG",@progbits,_ZNSt15__exception_ptr13exception_ptr4swapERS0_,comdat
	.align 2
	.weak	_ZNSt15__exception_ptr13exception_ptr4swapERS0_
	.type	_ZNSt15__exception_ptr13exception_ptr4swapERS0_, @function
_ZNSt15__exception_ptr13exception_ptr4swapERS0_:
.LFB1462:
	.cfi_startproc
	pushq	%rbp	#
	.cfi_def_cfa_offset 16
	.cfi_offset 6, -16
	movq	%rsp, %rbp	#,
	.cfi_def_cfa_register 6
	movq	%rdi, -24(%rbp)	# this, this
	movq	%rsi, -32(%rbp)	# __other, __other
# /usr/include/c++/11.3.0/bits/exception_ptr.h:216:       void *__tmp = _M_exception_object;
	movq	-24(%rbp), %rax	# this, tmp83
	movq	(%rax), %rax	# this_3(D)->_M_exception_object, tmp84
	movq	%rax, -8(%rbp)	# tmp84, __tmp
# /usr/include/c++/11.3.0/bits/exception_ptr.h:217:       _M_exception_object = __other._M_exception_object;
	movq	-32(%rbp), %rax	# __other, tmp85
	movq	(%rax), %rdx	# __other_5(D)->_M_exception_object, _1
# /usr/include/c++/11.3.0/bits/exception_ptr.h:217:       _M_exception_object = __other._M_exception_object;
	movq	-24(%rbp), %rax	# this, tmp86
	movq	%rdx, (%rax)	# _1, this_3(D)->_M_exception_object
# /usr/include/c++/11.3.0/bits/exception_ptr.h:218:       __other._M_exception_object = __tmp;
	movq	-32(%rbp), %rax	# __other, tmp87
	movq	-8(%rbp), %rdx	# __tmp, tmp88
	movq	%rdx, (%rax)	# tmp88, __other_5(D)->_M_exception_object
# /usr/include/c++/11.3.0/bits/exception_ptr.h:219:     }
	nop	
	popq	%rbp	#
	.cfi_def_cfa 7, 8
	ret	
	.cfi_endproc
.LFE1462:
	.size	_ZNSt15__exception_ptr13exception_ptr4swapERS0_, .-_ZNSt15__exception_ptr13exception_ptr4swapERS0_
	.section	.text._ZNSt11char_traitsIcE6assignERcRKc,"axG",@progbits,_ZNSt11char_traitsIcE6assignERcRKc,comdat
	.weak	_ZNSt11char_traitsIcE6assignERcRKc
	.type	_ZNSt11char_traitsIcE6assignERcRKc, @function
_ZNSt11char_traitsIcE6assignERcRKc:
.LFB1507:
	.cfi_startproc
	pushq	%rbp	#
	.cfi_def_cfa_offset 16
	.cfi_offset 6, -16
	movq	%rsp, %rbp	#,
	.cfi_def_cfa_register 6
	movq	%rdi, -8(%rbp)	# __c1, __c1
	movq	%rsi, -16(%rbp)	# __c2, __c2
# /usr/include/c++/11.3.0/bits/char_traits.h:357:       { __c1 = __c2; }
	movq	-16(%rbp), %rax	# __c2, tmp83
	movzbl	(%rax), %edx	# *__c2_3(D), _1
# /usr/include/c++/11.3.0/bits/char_traits.h:357:       { __c1 = __c2; }
	movq	-8(%rbp), %rax	# __c1, tmp84
	movb	%dl, (%rax)	# _1, *__c1_4(D)
# /usr/include/c++/11.3.0/bits/char_traits.h:357:       { __c1 = __c2; }
	nop	
	popq	%rbp	#
	.cfi_def_cfa 7, 8
	ret	
	.cfi_endproc
.LFE1507:
	.size	_ZNSt11char_traitsIcE6assignERcRKc, .-_ZNSt11char_traitsIcE6assignERcRKc
	.section	.text._ZNSt11char_traitsIcE6lengthEPKc,"axG",@progbits,_ZNSt11char_traitsIcE6lengthEPKc,comdat
	.weak	_ZNSt11char_traitsIcE6lengthEPKc
	.type	_ZNSt11char_traitsIcE6lengthEPKc, @function
_ZNSt11char_traitsIcE6lengthEPKc:
.LFB1512:
	.cfi_startproc
	pushq	%rbp	#
	.cfi_def_cfa_offset 16
	.cfi_offset 6, -16
	movq	%rsp, %rbp	#,
	.cfi_def_cfa_register 6
	subq	$32, %rsp	#,
	movq	%rdi, -24(%rbp)	# __s, __s
	movq	-24(%rbp), %rax	# __s, tmp85
	movq	%rax, -8(%rbp)	# tmp85, __s
# /usr/include/c++/11.3.0/bits/char_traits.h:290:       return __builtin_is_constant_evaluated();
	movl	$0, %eax	#, D.192631
# /usr/include/c++/11.3.0/bits/char_traits.h:396: 	if (__constant_string_p(__s))
	testb	%al, %al	# D.192631
	je	.L29	#,
# /usr/include/c++/11.3.0/bits/char_traits.h:397: 	  return __gnu_cxx::char_traits<char_type>::length(__s);
	movq	-24(%rbp), %rax	# __s, tmp86
	movq	%rax, %rdi	# tmp86,
	call	_ZN9__gnu_cxx11char_traitsIcE6lengthEPKc	#
# /usr/include/c++/11.3.0/bits/char_traits.h:397: 	  return __gnu_cxx::char_traits<char_type>::length(__s);
	jmp	.L30	#
.L29:
# /usr/include/c++/11.3.0/bits/char_traits.h:399: 	return __builtin_strlen(__s);
	movq	-24(%rbp), %rax	# __s, tmp88
	movq	%rax, %rdi	# tmp88,
	call	strlen@PLT	#
# /usr/include/c++/11.3.0/bits/char_traits.h:399: 	return __builtin_strlen(__s);
	nop	
.L30:
# /usr/include/c++/11.3.0/bits/char_traits.h:400:       }
	leave	
	.cfi_def_cfa 7, 8
	ret	
	.cfi_endproc
.LFE1512:
	.size	_ZNSt11char_traitsIcE6lengthEPKc, .-_ZNSt11char_traitsIcE6lengthEPKc
	.section	.text._ZNSt11char_traitsIcE4moveEPcPKcm,"axG",@progbits,_ZNSt11char_traitsIcE4moveEPcPKcm,comdat
	.weak	_ZNSt11char_traitsIcE4moveEPcPKcm
	.type	_ZNSt11char_traitsIcE4moveEPcPKcm, @function
_ZNSt11char_traitsIcE4moveEPcPKcm:
.LFB1515:
	.cfi_startproc
	pushq	%rbp	#
	.cfi_def_cfa_offset 16
	.cfi_offset 6, -16
	movq	%rsp, %rbp	#,
	.cfi_def_cfa_register 6
	subq	$32, %rsp	#,
	movq	%rdi, -8(%rbp)	# __s1, __s1
	movq	%rsi, -16(%rbp)	# __s2, __s2
	movq	%rdx, -24(%rbp)	# __n, __n
# /usr/include/c++/11.3.0/bits/char_traits.h:419: 	if (__n == 0)
	cmpq	$0, -24(%rbp)	#, __n
	jne	.L32	#,
# /usr/include/c++/11.3.0/bits/char_traits.h:420: 	  return __s1;
	movq	-8(%rbp), %rax	# __s1, _1
	jmp	.L33	#
.L32:
# /usr/include/c++/11.3.0/bits/char_traits.h:422: 	if (std::is_constant_evaluated())
	call	_ZSt21is_constant_evaluatedv	#
# /usr/include/c++/11.3.0/bits/char_traits.h:422: 	if (std::is_constant_evaluated())
	testb	%al, %al	# retval.47_6
	je	.L34	#,
# /usr/include/c++/11.3.0/bits/char_traits.h:423: 	  return __gnu_cxx::char_traits<char_type>::move(__s1, __s2, __n);
	movq	-24(%rbp), %rdx	# __n, tmp85
	movq	-16(%rbp), %rcx	# __s2, tmp86
	movq	-8(%rbp), %rax	# __s1, tmp87
	movq	%rcx, %rsi	# tmp86,
	movq	%rax, %rdi	# tmp87,
	call	_ZN9__gnu_cxx11char_traitsIcE4moveEPcPKcm	#
# /usr/include/c++/11.3.0/bits/char_traits.h:423: 	  return __gnu_cxx::char_traits<char_type>::move(__s1, __s2, __n);
	jmp	.L33	#
.L34:
# /usr/include/c++/11.3.0/bits/char_traits.h:425: 	return static_cast<char_type*>(__builtin_memmove(__s1, __s2, __n));
	movq	-24(%rbp), %rdx	# __n, tmp90
	movq	-16(%rbp), %rcx	# __s2, tmp91
	movq	-8(%rbp), %rax	# __s1, tmp92
	movq	%rcx, %rsi	# tmp91,
	movq	%rax, %rdi	# tmp92,
	call	memmove@PLT	#
# /usr/include/c++/11.3.0/bits/char_traits.h:425: 	return static_cast<char_type*>(__builtin_memmove(__s1, __s2, __n));
	nop	
.L33:
# /usr/include/c++/11.3.0/bits/char_traits.h:426:       }
	leave	
	.cfi_def_cfa 7, 8
	ret	
	.cfi_endproc
.LFE1515:
	.size	_ZNSt11char_traitsIcE4moveEPcPKcm, .-_ZNSt11char_traitsIcE4moveEPcPKcm
	.section	.text._ZNSt11char_traitsIcE4copyEPcPKcm,"axG",@progbits,_ZNSt11char_traitsIcE4copyEPcPKcm,comdat
	.weak	_ZNSt11char_traitsIcE4copyEPcPKcm
	.type	_ZNSt11char_traitsIcE4copyEPcPKcm, @function
_ZNSt11char_traitsIcE4copyEPcPKcm:
.LFB1516:
	.cfi_startproc
	pushq	%rbp	#
	.cfi_def_cfa_offset 16
	.cfi_offset 6, -16
	movq	%rsp, %rbp	#,
	.cfi_def_cfa_register 6
	subq	$32, %rsp	#,
	movq	%rdi, -8(%rbp)	# __s1, __s1
	movq	%rsi, -16(%rbp)	# __s2, __s2
	movq	%rdx, -24(%rbp)	# __n, __n
# /usr/include/c++/11.3.0/bits/char_traits.h:431: 	if (__n == 0)
	cmpq	$0, -24(%rbp)	#, __n
	jne	.L36	#,
# /usr/include/c++/11.3.0/bits/char_traits.h:432: 	  return __s1;
	movq	-8(%rbp), %rax	# __s1, _1
	jmp	.L37	#
.L36:
# /usr/include/c++/11.3.0/bits/char_traits.h:434: 	if (std::is_constant_evaluated())
	call	_ZSt21is_constant_evaluatedv	#
# /usr/include/c++/11.3.0/bits/char_traits.h:434: 	if (std::is_constant_evaluated())
	testb	%al, %al	# retval.54_6
	je	.L38	#,
# /usr/include/c++/11.3.0/bits/char_traits.h:435: 	  return __gnu_cxx::char_traits<char_type>::copy(__s1, __s2, __n);
	movq	-24(%rbp), %rdx	# __n, tmp85
	movq	-16(%rbp), %rcx	# __s2, tmp86
	movq	-8(%rbp), %rax	# __s1, tmp87
	movq	%rcx, %rsi	# tmp86,
	movq	%rax, %rdi	# tmp87,
	call	_ZN9__gnu_cxx11char_traitsIcE4copyEPcPKcm	#
# /usr/include/c++/11.3.0/bits/char_traits.h:435: 	  return __gnu_cxx::char_traits<char_type>::copy(__s1, __s2, __n);
	jmp	.L37	#
.L38:
# /usr/include/c++/11.3.0/bits/char_traits.h:437: 	return static_cast<char_type*>(__builtin_memcpy(__s1, __s2, __n));
	movq	-8(%rbp), %rdx	# __s1, tmp88
	movq	-16(%rbp), %rax	# __s2, tmp89
	movq	%rdx, %rcx	# tmp88, tmp91
	movq	%rax, %rsi	# tmp89, tmp92
	movq	-24(%rbp), %rax	# __n, tmp93
	movq	%rax, %rdx	# tmp93,
	movq	%rcx, %rdi	# tmp91,
	call	memcpy@PLT	#
# /usr/include/c++/11.3.0/bits/char_traits.h:437: 	return static_cast<char_type*>(__builtin_memcpy(__s1, __s2, __n));
	nop	
.L37:
# /usr/include/c++/11.3.0/bits/char_traits.h:438:       }
	leave	
	.cfi_def_cfa 7, 8
	ret	
	.cfi_endproc
.LFE1516:
	.size	_ZNSt11char_traitsIcE4copyEPcPKcm, .-_ZNSt11char_traitsIcE4copyEPcPKcm
	.section	.data.rel.ro,"aw"
	.align 8
	.type	_ZZL18__gthread_active_pvE20__gthread_active_ptr, @object
	.size	_ZZL18__gthread_active_pvE20__gthread_active_ptr, 8
_ZZL18__gthread_active_pvE20__gthread_active_ptr:
	.quad	_ZL28__gthrw___pthread_key_createPjPFvPvE
	.text
	.type	_ZL18__gthread_active_pv, @function
_ZL18__gthread_active_pv:
.LFB1997:
	.cfi_startproc
	pushq	%rbp	#
	.cfi_def_cfa_offset 16
	.cfi_offset 6, -16
	movq	%rsp, %rbp	#,
	.cfi_def_cfa_register 6
# /usr/include/c++/11.3.0/x86_64-unknown-linux-gnu/bits/gthr-default.h:252:   return __gthread_active_ptr != 0;
	movl	$1, %edx	#, _1
	movq	_ZL28__gthrw___pthread_key_createPjPFvPvE@GOTPCREL(%rip), %rax	#, tmp86
	testq	%rax, %rax	# tmp85
	jne	.L40	#,
	movl	$0, %edx	#, _1
.L40:
# /usr/include/c++/11.3.0/x86_64-unknown-linux-gnu/bits/gthr-default.h:252:   return __gthread_active_ptr != 0;
	movzbl	%dl, %eax	# _1, _2
# /usr/include/c++/11.3.0/x86_64-unknown-linux-gnu/bits/gthr-default.h:253: }
	popq	%rbp	#
	.cfi_def_cfa 7, 8
	ret	
	.cfi_endproc
.LFE1997:
	.size	_ZL18__gthread_active_pv, .-_ZL18__gthread_active_pv
	.type	_ZL14__gthread_oncePiPFvvE, @function
_ZL14__gthread_oncePiPFvvE:
.LFB2004:
	.cfi_startproc
	pushq	%rbp	#
	.cfi_def_cfa_offset 16
	.cfi_offset 6, -16
	movq	%rsp, %rbp	#,
	.cfi_def_cfa_register 6
	subq	$16, %rsp	#,
	movq	%rdi, -8(%rbp)	# __once, __once
	movq	%rsi, -16(%rbp)	# __func, __func
# /usr/include/c++/11.3.0/x86_64-unknown-linux-gnu/bits/gthr-default.h:699:   if (__gthread_active_p ())
	call	_ZL18__gthread_active_pv	#
	testl	%eax, %eax	# _1
	setne	%al	#, retval.21_6
# /usr/include/c++/11.3.0/x86_64-unknown-linux-gnu/bits/gthr-default.h:699:   if (__gthread_active_p ())
	testb	%al, %al	# retval.21_6
	je	.L43	#,
# /usr/include/c++/11.3.0/x86_64-unknown-linux-gnu/bits/gthr-default.h:700:     return __gthrw_(pthread_once) (__once, __func);
	movq	-16(%rbp), %rdx	# __func, tmp86
	movq	-8(%rbp), %rax	# __once, tmp87
	movq	%rdx, %rsi	# tmp86,
	movq	%rax, %rdi	# tmp87,
	call	_ZL20__gthrw_pthread_oncePiPFvvE@PLT	#
# /usr/include/c++/11.3.0/x86_64-unknown-linux-gnu/bits/gthr-default.h:700:     return __gthrw_(pthread_once) (__once, __func);
	jmp	.L44	#
.L43:
# /usr/include/c++/11.3.0/x86_64-unknown-linux-gnu/bits/gthr-default.h:702:     return -1;
	movl	$-1, %eax	#, _11
.L44:
# /usr/include/c++/11.3.0/x86_64-unknown-linux-gnu/bits/gthr-default.h:703: }
	leave	
	.cfi_def_cfa 7, 8
	ret	
	.cfi_endproc
.LFE2004:
	.size	_ZL14__gthread_oncePiPFvvE, .-_ZL14__gthread_oncePiPFvvE
	.section	.text._ZNSt10error_codeC2EiRKNSt3_V214error_categoryE,"axG",@progbits,_ZNSt10error_codeC5EiRKNSt3_V214error_categoryE,comdat
	.align 2
	.weak	_ZNSt10error_codeC2EiRKNSt3_V214error_categoryE
	.type	_ZNSt10error_codeC2EiRKNSt3_V214error_categoryE, @function
_ZNSt10error_codeC2EiRKNSt3_V214error_categoryE:
.LFB2640:
	.cfi_startproc
	pushq	%rbp	#
	.cfi_def_cfa_offset 16
	.cfi_offset 6, -16
	movq	%rsp, %rbp	#,
	.cfi_def_cfa_register 6
	movq	%rdi, -8(%rbp)	# this, this
	movl	%esi, -12(%rbp)	# __v, __v
	movq	%rdx, -24(%rbp)	# __cat, __cat
# /usr/include/c++/11.3.0/system_error:203:     : _M_value(__v), _M_cat(&__cat) { }
	movq	-8(%rbp), %rax	# this, tmp82
	movl	-12(%rbp), %edx	# __v, tmp83
	movl	%edx, (%rax)	# tmp83, this_2(D)->_M_value
# /usr/include/c++/11.3.0/system_error:203:     : _M_value(__v), _M_cat(&__cat) { }
	movq	-8(%rbp), %rax	# this, tmp84
	movq	-24(%rbp), %rdx	# __cat, tmp85
	movq	%rdx, 8(%rax)	# tmp85, this_2(D)->_M_cat
# /usr/include/c++/11.3.0/system_error:203:     : _M_value(__v), _M_cat(&__cat) { }
	nop	
	popq	%rbp	#
	.cfi_def_cfa 7, 8
	ret	
	.cfi_endproc
.LFE2640:
	.size	_ZNSt10error_codeC2EiRKNSt3_V214error_categoryE, .-_ZNSt10error_codeC2EiRKNSt3_V214error_categoryE
	.weak	_ZNSt10error_codeC1EiRKNSt3_V214error_categoryE
	.set	_ZNSt10error_codeC1EiRKNSt3_V214error_categoryE,_ZNSt10error_codeC2EiRKNSt3_V214error_categoryE
	.section	.text._ZNKSt10error_code5valueEv,"axG",@progbits,_ZNKSt10error_code5valueEv,comdat
	.align 2
	.weak	_ZNKSt10error_code5valueEv
	.type	_ZNKSt10error_code5valueEv, @function
_ZNKSt10error_code5valueEv:
.LFB2646:
	.cfi_startproc
	pushq	%rbp	#
	.cfi_def_cfa_offset 16
	.cfi_offset 6, -16
	movq	%rsp, %rbp	#,
	.cfi_def_cfa_register 6
	movq	%rdi, -8(%rbp)	# this, this
# /usr/include/c++/11.3.0/system_error:229:     value() const noexcept { return _M_value; }
	movq	-8(%rbp), %rax	# this, tmp84
	movl	(%rax), %eax	# this_2(D)->_M_value, _3
# /usr/include/c++/11.3.0/system_error:229:     value() const noexcept { return _M_value; }
	popq	%rbp	#
	.cfi_def_cfa 7, 8
	ret	
	.cfi_endproc
.LFE2646:
	.size	_ZNKSt10error_code5valueEv, .-_ZNKSt10error_code5valueEv
	.section	.text._ZNKSt10error_code8categoryEv,"axG",@progbits,_ZNKSt10error_code8categoryEv,comdat
	.align 2
	.weak	_ZNKSt10error_code8categoryEv
	.type	_ZNKSt10error_code8categoryEv, @function
_ZNKSt10error_code8categoryEv:
.LFB2647:
	.cfi_startproc
	pushq	%rbp	#
	.cfi_def_cfa_offset 16
	.cfi_offset 6, -16
	movq	%rsp, %rbp	#,
	.cfi_def_cfa_register 6
	movq	%rdi, -8(%rbp)	# this, this
# /usr/include/c++/11.3.0/system_error:232:     category() const noexcept { return *_M_cat; }
	movq	-8(%rbp), %rax	# this, tmp84
	movq	8(%rax), %rax	# this_2(D)->_M_cat, _3
# /usr/include/c++/11.3.0/system_error:232:     category() const noexcept { return *_M_cat; }
	popq	%rbp	#
	.cfi_def_cfa 7, 8
	ret	
	.cfi_endproc
.LFE2647:
	.size	_ZNKSt10error_code8categoryEv, .-_ZNKSt10error_code8categoryEv
	.section	.text._ZNKSt10error_code7messageB5cxx11Ev,"axG",@progbits,_ZNKSt10error_code7messageB5cxx11Ev,comdat
	.align 2
	.weak	_ZNKSt10error_code7messageB5cxx11Ev
	.type	_ZNKSt10error_code7messageB5cxx11Ev, @function
_ZNKSt10error_code7messageB5cxx11Ev:
.LFB2648:
	.cfi_startproc
	pushq	%rbp	#
	.cfi_def_cfa_offset 16
	.cfi_offset 6, -16
	movq	%rsp, %rbp	#,
	.cfi_def_cfa_register 6
	pushq	%r12	#
	pushq	%rbx	#
	subq	$32, %rsp	#,
	.cfi_offset 12, -24
	.cfi_offset 3, -32
	movq	%rdi, -40(%rbp)	# .result_ptr, .result_ptr
	movq	%rsi, -48(%rbp)	# this, this
# /usr/include/c++/11.3.0/system_error:239:     message() const
	movq	%fs:40, %rax	# MEM[(<address-space-1> long unsigned int *)40B], tmp90
	movq	%rax, -24(%rbp)	# tmp90, D.192819
	xorl	%eax, %eax	# tmp90
# /usr/include/c++/11.3.0/system_error:240:     { return category().message(value()); }
	movq	-48(%rbp), %rax	# this, tmp87
	movq	%rax, %rdi	# tmp87,
	call	_ZNKSt10error_code8categoryEv	#
	movq	%rax, %rbx	#, _8
# /usr/include/c++/11.3.0/system_error:240:     { return category().message(value()); }
	movq	(%rbx), %rax	# _8->_vptr.error_category, _1
	addq	$32, %rax	#, _2
	movq	(%rax), %r12	# *_2, _3
# /usr/include/c++/11.3.0/system_error:240:     { return category().message(value()); }
	movq	-48(%rbp), %rax	# this, tmp88
	movq	%rax, %rdi	# tmp88,
	call	_ZNKSt10error_code5valueEv	#
	movl	%eax, %edx	#, _4
	movq	-40(%rbp), %rax	# <retval>, tmp89
	movq	%rbx, %rsi	# _8,
	movq	%rax, %rdi	# tmp89,
	call	*%r12	# _3
# /usr/include/c++/11.3.0/system_error:240:     { return category().message(value()); }
	movq	-24(%rbp), %rax	# D.192819, tmp91
	subq	%fs:40, %rax	# MEM[(<address-space-1> long unsigned int *)40B], tmp91
	je	.L52	#,
	call	__stack_chk_fail@PLT	#
.L52:
	movq	-40(%rbp), %rax	# <retval>,
	addq	$32, %rsp	#,
	popq	%rbx	#
	popq	%r12	#
	popq	%rbp	#
	.cfi_def_cfa 7, 8
	ret	
	.cfi_endproc
.LFE2648:
	.size	_ZNKSt10error_code7messageB5cxx11Ev, .-_ZNKSt10error_code7messageB5cxx11Ev
	.section	.text._ZNSt15error_conditionC2EiRKNSt3_V214error_categoryE,"axG",@progbits,_ZNSt15error_conditionC5EiRKNSt3_V214error_categoryE,comdat
	.align 2
	.weak	_ZNSt15error_conditionC2EiRKNSt3_V214error_categoryE
	.type	_ZNSt15error_conditionC2EiRKNSt3_V214error_categoryE, @function
_ZNSt15error_conditionC2EiRKNSt3_V214error_categoryE:
.LFB2657:
	.cfi_startproc
	pushq	%rbp	#
	.cfi_def_cfa_offset 16
	.cfi_offset 6, -16
	movq	%rsp, %rbp	#,
	.cfi_def_cfa_register 6
	movq	%rdi, -8(%rbp)	# this, this
	movl	%esi, -12(%rbp)	# __v, __v
	movq	%rdx, -24(%rbp)	# __cat, __cat
# /usr/include/c++/11.3.0/system_error:304:     : _M_value(__v), _M_cat(&__cat) { }
	movq	-8(%rbp), %rax	# this, tmp82
	movl	-12(%rbp), %edx	# __v, tmp83
	movl	%edx, (%rax)	# tmp83, this_2(D)->_M_value
# /usr/include/c++/11.3.0/system_error:304:     : _M_value(__v), _M_cat(&__cat) { }
	movq	-8(%rbp), %rax	# this, tmp84
	movq	-24(%rbp), %rdx	# __cat, tmp85
	movq	%rdx, 8(%rax)	# tmp85, this_2(D)->_M_cat
# /usr/include/c++/11.3.0/system_error:304:     : _M_value(__v), _M_cat(&__cat) { }
	nop	
	popq	%rbp	#
	.cfi_def_cfa 7, 8
	ret	
	.cfi_endproc
.LFE2657:
	.size	_ZNSt15error_conditionC2EiRKNSt3_V214error_categoryE, .-_ZNSt15error_conditionC2EiRKNSt3_V214error_categoryE
	.weak	_ZNSt15error_conditionC1EiRKNSt3_V214error_categoryE
	.set	_ZNSt15error_conditionC1EiRKNSt3_V214error_categoryE,_ZNSt15error_conditionC2EiRKNSt3_V214error_categoryE
	.section	.text._ZNKSt15error_condition5valueEv,"axG",@progbits,_ZNKSt15error_condition5valueEv,comdat
	.align 2
	.weak	_ZNKSt15error_condition5valueEv
	.type	_ZNKSt15error_condition5valueEv, @function
_ZNKSt15error_condition5valueEv:
.LFB2663:
	.cfi_startproc
	pushq	%rbp	#
	.cfi_def_cfa_offset 16
	.cfi_offset 6, -16
	movq	%rsp, %rbp	#,
	.cfi_def_cfa_register 6
	movq	%rdi, -8(%rbp)	# this, this
# /usr/include/c++/11.3.0/system_error:331:     value() const noexcept { return _M_value; }
	movq	-8(%rbp), %rax	# this, tmp84
	movl	(%rax), %eax	# this_2(D)->_M_value, _3
# /usr/include/c++/11.3.0/system_error:331:     value() const noexcept { return _M_value; }
	popq	%rbp	#
	.cfi_def_cfa 7, 8
	ret	
	.cfi_endproc
.LFE2663:
	.size	_ZNKSt15error_condition5valueEv, .-_ZNKSt15error_condition5valueEv
	.section	.text._ZNKSt15error_condition8categoryEv,"axG",@progbits,_ZNKSt15error_condition8categoryEv,comdat
	.align 2
	.weak	_ZNKSt15error_condition8categoryEv
	.type	_ZNKSt15error_condition8categoryEv, @function
_ZNKSt15error_condition8categoryEv:
.LFB2664:
	.cfi_startproc
	pushq	%rbp	#
	.cfi_def_cfa_offset 16
	.cfi_offset 6, -16
	movq	%rsp, %rbp	#,
	.cfi_def_cfa_register 6
	movq	%rdi, -8(%rbp)	# this, this
# /usr/include/c++/11.3.0/system_error:334:     category() const noexcept { return *_M_cat; }
	movq	-8(%rbp), %rax	# this, tmp84
	movq	8(%rax), %rax	# this_2(D)->_M_cat, _3
# /usr/include/c++/11.3.0/system_error:334:     category() const noexcept { return *_M_cat; }
	popq	%rbp	#
	.cfi_def_cfa 7, 8
	ret	
	.cfi_endproc
.LFE2664:
	.size	_ZNKSt15error_condition8categoryEv, .-_ZNKSt15error_condition8categoryEv
	.section	.text._ZSt20make_error_conditionSt4errc,"axG",@progbits,_ZSt20make_error_conditionSt4errc,comdat
	.weak	_ZSt20make_error_conditionSt4errc
	.type	_ZSt20make_error_conditionSt4errc, @function
_ZSt20make_error_conditionSt4errc:
.LFB2667:
	.cfi_startproc
	pushq	%rbp	#
	.cfi_def_cfa_offset 16
	.cfi_offset 6, -16
	movq	%rsp, %rbp	#,
	.cfi_def_cfa_register 6
	pushq	%rbx	#
	subq	$56, %rsp	#,
	.cfi_offset 3, -24
	movl	%edi, -52(%rbp)	# __e, __e
# /usr/include/c++/11.3.0/system_error:356:   { return error_condition(static_cast<int>(__e), generic_category()); }
	movq	%fs:40, %rax	# MEM[(<address-space-1> long unsigned int *)40B], tmp91
	movq	%rax, -24(%rbp)	# tmp91, D.192822
	xorl	%eax, %eax	# tmp91
# /usr/include/c++/11.3.0/system_error:356:   { return error_condition(static_cast<int>(__e), generic_category()); }
	call	_ZNSt3_V216generic_categoryEv@PLT	#
	movq	%rax, %rdx	#, _1
	movl	-52(%rbp), %ecx	# __e, tmp86
	leaq	-48(%rbp), %rax	#, tmp87
	movl	%ecx, %esi	# tmp86,
	movq	%rax, %rdi	# tmp87,
	call	_ZNSt15error_conditionC1EiRKNSt3_V214error_categoryE	#
# /usr/include/c++/11.3.0/system_error:356:   { return error_condition(static_cast<int>(__e), generic_category()); }
	movq	-48(%rbp), %rax	# D.61697, D.191753
	movq	-40(%rbp), %rdx	# D.61697, D.191753
	movq	%rax, %rcx	# D.191753, tmp89
	movq	%rdx, %rbx	# D.191753,
# /usr/include/c++/11.3.0/system_error:356:   { return error_condition(static_cast<int>(__e), generic_category()); }
	movq	-24(%rbp), %rax	# D.192822, tmp92
	subq	%fs:40, %rax	# MEM[(<address-space-1> long unsigned int *)40B], tmp92
	je	.L60	#,
	call	__stack_chk_fail@PLT	#
.L60:
	movl	%ecx, %eax	# <retval>,
	movq	-8(%rbp), %rbx	#,
	leave	
	.cfi_def_cfa 7, 8
	ret	
	.cfi_endproc
.LFE2667:
	.size	_ZSt20make_error_conditionSt4errc, .-_ZSt20make_error_conditionSt4errc
	.section	.text._ZSteqRKSt10error_codeRKSt15error_condition,"axG",@progbits,_ZSteqRKSt10error_codeRKSt15error_condition,comdat
	.weak	_ZSteqRKSt10error_codeRKSt15error_condition
	.type	_ZSteqRKSt10error_codeRKSt15error_condition, @function
_ZSteqRKSt10error_codeRKSt15error_condition:
.LFB2669:
	.cfi_startproc
	pushq	%rbp	#
	.cfi_def_cfa_offset 16
	.cfi_offset 6, -16
	movq	%rsp, %rbp	#,
	.cfi_def_cfa_register 6
	pushq	%r12	#
	pushq	%rbx	#
	subq	$16, %rsp	#,
	.cfi_offset 12, -24
	.cfi_offset 3, -32
	movq	%rdi, -24(%rbp)	# __lhs, __lhs
	movq	%rsi, -32(%rbp)	# __rhs, __rhs
# /usr/include/c++/11.3.0/system_error:370:     return (__lhs.category().equivalent(__lhs.value(), __rhs)
	movq	-24(%rbp), %rax	# __lhs, tmp96
	movq	%rax, %rdi	# tmp96,
	call	_ZNKSt10error_code8categoryEv	#
	movq	%rax, %rbx	#, _17
# /usr/include/c++/11.3.0/system_error:370:     return (__lhs.category().equivalent(__lhs.value(), __rhs)
	movq	(%rbx), %rax	# _17->_vptr.error_category, _1
	addq	$48, %rax	#, _2
	movq	(%rax), %r12	# *_2, _3
	movq	-24(%rbp), %rax	# __lhs, tmp97
	movq	%rax, %rdi	# tmp97,
	call	_ZNKSt10error_code5valueEv	#
	movl	%eax, %ecx	#, _4
	movq	-32(%rbp), %rax	# __rhs, tmp98
	movq	%rax, %rdx	# tmp98,
	movl	%ecx, %esi	# _4,
	movq	%rbx, %rdi	# _17,
	call	*%r12	# _3
# /usr/include/c++/11.3.0/system_error:371: 	    || __rhs.category().equivalent(__lhs, __rhs.value()));
	testb	%al, %al	# _5
	jne	.L62	#,
# /usr/include/c++/11.3.0/system_error:371: 	    || __rhs.category().equivalent(__lhs, __rhs.value()));
	movq	-32(%rbp), %rax	# __rhs, tmp99
	movq	%rax, %rdi	# tmp99,
	call	_ZNKSt15error_condition8categoryEv	#
	movq	%rax, %rbx	#, _22
# /usr/include/c++/11.3.0/system_error:371: 	    || __rhs.category().equivalent(__lhs, __rhs.value()));
	movq	(%rbx), %rax	# _22->_vptr.error_category, _6
	addq	$56, %rax	#, _7
	movq	(%rax), %r12	# *_7, _8
	movq	-32(%rbp), %rax	# __rhs, tmp100
	movq	%rax, %rdi	# tmp100,
	call	_ZNKSt15error_condition5valueEv	#
	movl	%eax, %edx	#, _9
	movq	-24(%rbp), %rax	# __lhs, tmp101
	movq	%rax, %rsi	# tmp101,
	movq	%rbx, %rdi	# _22,
	call	*%r12	# _8
# /usr/include/c++/11.3.0/system_error:371: 	    || __rhs.category().equivalent(__lhs, __rhs.value()));
	testb	%al, %al	# _10
	je	.L63	#,
.L62:
# /usr/include/c++/11.3.0/system_error:371: 	    || __rhs.category().equivalent(__lhs, __rhs.value()));
	movl	$1, %eax	#, iftmp.92_11
	jmp	.L64	#
.L63:
# /usr/include/c++/11.3.0/system_error:371: 	    || __rhs.category().equivalent(__lhs, __rhs.value()));
	movl	$0, %eax	#, iftmp.92_11
.L64:
# /usr/include/c++/11.3.0/system_error:372:   }
	addq	$16, %rsp	#,
	popq	%rbx	#
	popq	%r12	#
	popq	%rbp	#
	.cfi_def_cfa 7, 8
	ret	
	.cfi_endproc
.LFE2669:
	.size	_ZSteqRKSt10error_codeRKSt15error_condition, .-_ZSteqRKSt10error_codeRKSt15error_condition
	.section	.text._ZNKSt12system_error4codeEv,"axG",@progbits,_ZNKSt12system_error4codeEv,comdat
	.align 2
	.weak	_ZNKSt12system_error4codeEv
	.type	_ZNKSt12system_error4codeEv, @function
_ZNKSt12system_error4codeEv:
.LFB2690:
	.cfi_startproc
	pushq	%rbp	#
	.cfi_def_cfa_offset 16
	.cfi_offset 6, -16
	movq	%rsp, %rbp	#,
	.cfi_def_cfa_register 6
	movq	%rdi, -8(%rbp)	# this, this
# /usr/include/c++/11.3.0/system_error:480:     code() const noexcept { return _M_code; }
	movq	-8(%rbp), %rax	# this, tmp84
	addq	$16, %rax	#, _2
# /usr/include/c++/11.3.0/system_error:480:     code() const noexcept { return _M_code; }
	popq	%rbp	#
	.cfi_def_cfa 7, 8
	ret	
	.cfi_endproc
.LFE2690:
	.size	_ZNKSt12system_error4codeEv, .-_ZNKSt12system_error4codeEv
	.section	.text._ZNSt9once_flag18_Prepare_executionD2Ev,"axG",@progbits,_ZNSt9once_flag18_Prepare_executionD5Ev,comdat
	.align 2
	.weak	_ZNSt9once_flag18_Prepare_executionD2Ev
	.type	_ZNSt9once_flag18_Prepare_executionD2Ev, @function
_ZNSt9once_flag18_Prepare_executionD2Ev:
.LFB2776:
	.cfi_startproc
	pushq	%rbp	#
	.cfi_def_cfa_offset 16
	.cfi_offset 6, -16
	movq	%rsp, %rbp	#,
	.cfi_def_cfa_register 6
	movq	%rdi, -8(%rbp)	# this, this
# /usr/include/c++/11.3.0/mutex:718:       __once_callable = nullptr;
	movq	_ZSt15__once_callable@gottpoff(%rip), %rax	#, tmp82
	movq	$0, %fs:(%rax)	#, __once_callable
# /usr/include/c++/11.3.0/mutex:719:       __once_call = nullptr;
	movq	_ZSt11__once_call@gottpoff(%rip), %rax	#, tmp83
	movq	$0, %fs:(%rax)	#, __once_call
# /usr/include/c++/11.3.0/mutex:720:     }
	nop	
	popq	%rbp	#
	.cfi_def_cfa 7, 8
	ret	
	.cfi_endproc
.LFE2776:
	.size	_ZNSt9once_flag18_Prepare_executionD2Ev, .-_ZNSt9once_flag18_Prepare_executionD2Ev
	.weak	_ZNSt9once_flag18_Prepare_executionD1Ev
	.set	_ZNSt9once_flag18_Prepare_executionD1Ev,_ZNSt9once_flag18_Prepare_executionD2Ev
	.section	.rodata
	.align 4
	.type	_ZN9__gnu_cxxL21__default_lock_policyE, @object
	.size	_ZN9__gnu_cxxL21__default_lock_policyE, 4
_ZN9__gnu_cxxL21__default_lock_policyE:
	.long	2
	.weak	_ZZNSt19_Sp_make_shared_tag5_S_tiEvE5__tag
	.section	.rodata._ZZNSt19_Sp_make_shared_tag5_S_tiEvE5__tag,"aG",@progbits,_ZZNSt19_Sp_make_shared_tag5_S_tiEvE5__tag,comdat
	.align 8
	.type	_ZZNSt19_Sp_make_shared_tag5_S_tiEvE5__tag, @gnu_unique_object
	.size	_ZZNSt19_Sp_make_shared_tag5_S_tiEvE5__tag, 16
_ZZNSt19_Sp_make_shared_tag5_S_tiEvE5__tag:
	.zero	16
	.section	.text._ZNSt19_Sp_make_shared_tag5_S_tiEv,"axG",@progbits,_ZNSt19_Sp_make_shared_tag5_S_tiEv,comdat
	.weak	_ZNSt19_Sp_make_shared_tag5_S_tiEv
	.type	_ZNSt19_Sp_make_shared_tag5_S_tiEv, @function
_ZNSt19_Sp_make_shared_tag5_S_tiEv:
.LFB3363:
	.cfi_startproc
	pushq	%rbp	#
	.cfi_def_cfa_offset 16
	.cfi_offset 6, -16
	movq	%rsp, %rbp	#,
	.cfi_def_cfa_register 6
# /usr/include/c++/11.3.0/bits/shared_ptr_base.h:482:       return reinterpret_cast<const type_info&>(__tag);
	leaq	_ZZNSt19_Sp_make_shared_tag5_S_tiEvE5__tag(%rip), %rax	#, _1
# /usr/include/c++/11.3.0/bits/shared_ptr_base.h:483:     }
	popq	%rbp	#
	.cfi_def_cfa 7, 8
	ret	
	.cfi_endproc
.LFE3363:
	.size	_ZNSt19_Sp_make_shared_tag5_S_tiEv, .-_ZNSt19_Sp_make_shared_tag5_S_tiEv
	.section	.rodata
	.align 8
	.type	_ZNSt8__detailL25__platform_wait_alignmentE, @object
	.size	_ZNSt8__detailL25__platform_wait_alignmentE, 8
_ZNSt8__detailL25__platform_wait_alignmentE:
	.quad	4
	.align 4
	.type	_ZNSt8__detailL21__atomic_spin_count_1E, @object
	.size	_ZNSt8__detailL21__atomic_spin_count_1E, 4
_ZNSt8__detailL21__atomic_spin_count_1E:
	.long	12
	.align 4
	.type	_ZNSt8__detailL21__atomic_spin_count_2E, @object
	.size	_ZNSt8__detailL21__atomic_spin_count_2E, 4
_ZNSt8__detailL21__atomic_spin_count_2E:
	.long	4
	.section	.text._ZStanSt12memory_orderSt23__memory_order_modifier,"axG",@progbits,_ZStanSt12memory_orderSt23__memory_order_modifier,comdat
	.weak	_ZStanSt12memory_orderSt23__memory_order_modifier
	.type	_ZStanSt12memory_orderSt23__memory_order_modifier, @function
_ZStanSt12memory_orderSt23__memory_order_modifier:
.LFB3585:
	.cfi_startproc
	pushq	%rbp	#
	.cfi_def_cfa_offset 16
	.cfi_offset 6, -16
	movq	%rsp, %rbp	#,
	.cfi_def_cfa_register 6
	movl	%edi, -4(%rbp)	# __m, __m
	movl	%esi, -8(%rbp)	# __mod, __mod
# /usr/include/c++/11.3.0/bits/atomic_base.h:106:     return memory_order(int(__m) & int(__mod));
	movl	-8(%rbp), %eax	# __mod, __mod.94_1
# /usr/include/c++/11.3.0/bits/atomic_base.h:106:     return memory_order(int(__m) & int(__mod));
	andl	-4(%rbp), %eax	# __m, _4
# /usr/include/c++/11.3.0/bits/atomic_base.h:107:   }
	popq	%rbp	#
	.cfi_def_cfa 7, 8
	ret	
	.cfi_endproc
.LFE3585:
	.size	_ZStanSt12memory_orderSt23__memory_order_modifier, .-_ZStanSt12memory_orderSt23__memory_order_modifier
	.section	.text._ZNSt11atomic_flagC2Eb,"axG",@progbits,_ZNSt11atomic_flagC5Eb,comdat
	.align 2
	.weak	_ZNSt11atomic_flagC2Eb
	.type	_ZNSt11atomic_flagC2Eb, @function
_ZNSt11atomic_flagC2Eb:
.LFB3592:
	.cfi_startproc
	pushq	%rbp	#
	.cfi_def_cfa_offset 16
	.cfi_offset 6, -16
	movq	%rsp, %rbp	#,
	.cfi_def_cfa_register 6
	subq	$16, %rsp	#,
	movq	%rdi, -8(%rbp)	# this, this
	movl	%esi, %eax	# __i, tmp84
	movb	%al, -12(%rbp)	# tmp85, __i
# /usr/include/c++/11.3.0/bits/atomic_base.h:199:       : __atomic_flag_base{ _S_init(__i) }
	movzbl	-12(%rbp), %eax	# __i, _1
	movl	%eax, %edi	# _1,
	call	_ZNSt11atomic_flag7_S_initEb	#
# /usr/include/c++/11.3.0/bits/atomic_base.h:199:       : __atomic_flag_base{ _S_init(__i) }
	movq	-8(%rbp), %rdx	# this, tmp86
	movb	%al, (%rdx)	# _2, this_4(D)->D.78852._M_i
# /usr/include/c++/11.3.0/bits/atomic_base.h:200:     { }
	nop	
	leave	
	.cfi_def_cfa 7, 8
	ret	
	.cfi_endproc
.LFE3592:
	.size	_ZNSt11atomic_flagC2Eb, .-_ZNSt11atomic_flagC2Eb
	.weak	_ZNSt11atomic_flagC1Eb
	.set	_ZNSt11atomic_flagC1Eb,_ZNSt11atomic_flagC2Eb
	.section	.text._ZNSt11atomic_flag7_S_initEb,"axG",@progbits,_ZNSt11atomic_flag7_S_initEb,comdat
	.weak	_ZNSt11atomic_flag7_S_initEb
	.type	_ZNSt11atomic_flag7_S_initEb, @function
_ZNSt11atomic_flag7_S_initEb:
.LFB3604:
	.cfi_startproc
	pushq	%rbp	#
	.cfi_def_cfa_offset 16
	.cfi_offset 6, -16
	movq	%rsp, %rbp	#,
	.cfi_def_cfa_register 6
	movl	%edi, %eax	# __i, tmp85
	movb	%al, -4(%rbp)	# tmp86, __i
# /usr/include/c++/11.3.0/bits/atomic_base.h:288:     { return __i ? __GCC_ATOMIC_TEST_AND_SET_TRUEVAL : 0; }
	cmpb	$0, -4(%rbp)	#, __i
	je	.L75	#,
# /usr/include/c++/11.3.0/bits/atomic_base.h:288:     { return __i ? __GCC_ATOMIC_TEST_AND_SET_TRUEVAL : 0; }
	movl	$1, %eax	#, iftmp.63_1
	jmp	.L76	#
.L75:
# /usr/include/c++/11.3.0/bits/atomic_base.h:288:     { return __i ? __GCC_ATOMIC_TEST_AND_SET_TRUEVAL : 0; }
	movl	$0, %eax	#, iftmp.63_1
.L76:
# /usr/include/c++/11.3.0/bits/atomic_base.h:288:     { return __i ? __GCC_ATOMIC_TEST_AND_SET_TRUEVAL : 0; }
	testl	%eax, %eax	# iftmp.63_1
	setne	%al	#, _5
# /usr/include/c++/11.3.0/bits/atomic_base.h:288:     { return __i ? __GCC_ATOMIC_TEST_AND_SET_TRUEVAL : 0; }
	popq	%rbp	#
	.cfi_def_cfa 7, 8
	ret	
	.cfi_endproc
.LFE3604:
	.size	_ZNSt11atomic_flag7_S_initEb, .-_ZNSt11atomic_flag7_S_initEb
	.section	.text._ZNSt6atomicIjEC2Ej,"axG",@progbits,_ZNSt6atomicIjEC5Ej,comdat
	.align 2
	.weak	_ZNSt6atomicIjEC2Ej
	.type	_ZNSt6atomicIjEC2Ej, @function
_ZNSt6atomicIjEC2Ej:
.LFB3947:
	.cfi_startproc
	pushq	%rbp	#
	.cfi_def_cfa_offset 16
	.cfi_offset 6, -16
	movq	%rsp, %rbp	#,
	.cfi_def_cfa_register 6
	subq	$16, %rsp	#,
	movq	%rdi, -8(%rbp)	# this, this
	movl	%esi, -12(%rbp)	# __i, __i
# /usr/include/c++/11.3.0/atomic:848:       constexpr atomic(__integral_type __i) noexcept : __base_type(__i) { }
	movq	-8(%rbp), %rax	# this, _1
	movl	-12(%rbp), %edx	# __i, tmp83
	movl	%edx, %esi	# tmp83,
	movq	%rax, %rdi	# _1,
	call	_ZNSt13__atomic_baseIjEC2Ej	#
# /usr/include/c++/11.3.0/atomic:848:       constexpr atomic(__integral_type __i) noexcept : __base_type(__i) { }
	nop	
	leave	
	.cfi_def_cfa 7, 8
	ret	
	.cfi_endproc
.LFE3947:
	.size	_ZNSt6atomicIjEC2Ej, .-_ZNSt6atomicIjEC2Ej
	.weak	_ZNSt6atomicIjEC1Ej
	.set	_ZNSt6atomicIjEC1Ej,_ZNSt6atomicIjEC2Ej
	.section	.text._ZNSt6thread2idC2Ev,"axG",@progbits,_ZNSt6thread2idC5Ev,comdat
	.align 2
	.weak	_ZNSt6thread2idC2Ev
	.type	_ZNSt6thread2idC2Ev, @function
_ZNSt6thread2idC2Ev:
.LFB4040:
	.cfi_startproc
	pushq	%rbp	#
	.cfi_def_cfa_offset 16
	.cfi_offset 6, -16
	movq	%rsp, %rbp	#,
	.cfi_def_cfa_register 6
	movq	%rdi, -8(%rbp)	# this, this
# /usr/include/c++/11.3.0/bits/std_thread.h:86:       id() noexcept : _M_thread() { }
	movq	-8(%rbp), %rax	# this, tmp82
	movq	$0, (%rax)	#, this_2(D)->_M_thread
# /usr/include/c++/11.3.0/bits/std_thread.h:86:       id() noexcept : _M_thread() { }
	nop	
	popq	%rbp	#
	.cfi_def_cfa 7, 8
	ret	
	.cfi_endproc
.LFE4040:
	.size	_ZNSt6thread2idC2Ev, .-_ZNSt6thread2idC2Ev
	.weak	_ZNSt6thread2idC1Ev
	.set	_ZNSt6thread2idC1Ev,_ZNSt6thread2idC2Ev
	.section	.text._ZNSt6threadD2Ev,"axG",@progbits,_ZNSt6threadD5Ev,comdat
	.align 2
	.weak	_ZNSt6threadD2Ev
	.type	_ZNSt6threadD2Ev, @function
_ZNSt6threadD2Ev:
.LFB4047:
	.cfi_startproc
	pushq	%rbp	#
	.cfi_def_cfa_offset 16
	.cfi_offset 6, -16
	movq	%rsp, %rbp	#,
	.cfi_def_cfa_register 6
	subq	$16, %rsp	#,
	movq	%rdi, -8(%rbp)	# this, this
# /usr/include/c++/11.3.0/bits/std_thread.h:151:       if (joinable())
	movq	-8(%rbp), %rax	# this, tmp83
	movq	%rax, %rdi	# tmp83,
	call	_ZNKSt6thread8joinableEv	#
# /usr/include/c++/11.3.0/bits/std_thread.h:151:       if (joinable())
	testb	%al, %al	# retval.24_4
	je	.L82	#,
# /usr/include/c++/11.3.0/bits/std_thread.h:152: 	std::terminate();
	call	_ZSt9terminatev@PLT	#
.L82:
# /usr/include/c++/11.3.0/bits/std_thread.h:153:     }
	nop	
	leave	
	.cfi_def_cfa 7, 8
	ret	
	.cfi_endproc
.LFE4047:
	.size	_ZNSt6threadD2Ev, .-_ZNSt6threadD2Ev
	.weak	_ZNSt6threadD1Ev
	.set	_ZNSt6threadD1Ev,_ZNSt6threadD2Ev
	.section	.text._ZNSt6threadaSEOS_,"axG",@progbits,_ZNSt6threadaSEOS_,comdat
	.align 2
	.weak	_ZNSt6threadaSEOS_
	.type	_ZNSt6threadaSEOS_, @function
_ZNSt6threadaSEOS_:
.LFB4052:
	.cfi_startproc
	pushq	%rbp	#
	.cfi_def_cfa_offset 16
	.cfi_offset 6, -16
	movq	%rsp, %rbp	#,
	.cfi_def_cfa_register 6
	subq	$16, %rsp	#,
	movq	%rdi, -8(%rbp)	# this, this
	movq	%rsi, -16(%rbp)	# __t, __t
# /usr/include/c++/11.3.0/bits/std_thread.h:164:       if (joinable())
	movq	-8(%rbp), %rax	# this, tmp85
	movq	%rax, %rdi	# tmp85,
	call	_ZNKSt6thread8joinableEv	#
# /usr/include/c++/11.3.0/bits/std_thread.h:164:       if (joinable())
	testb	%al, %al	# retval.76_4
	je	.L84	#,
# /usr/include/c++/11.3.0/bits/std_thread.h:165: 	std::terminate();
	call	_ZSt9terminatev@PLT	#
.L84:
# /usr/include/c++/11.3.0/bits/std_thread.h:166:       swap(__t);
	movq	-16(%rbp), %rdx	# __t, tmp86
	movq	-8(%rbp), %rax	# this, tmp87
	movq	%rdx, %rsi	# tmp86,
	movq	%rax, %rdi	# tmp87,
	call	_ZNSt6thread4swapERS_	#
# /usr/include/c++/11.3.0/bits/std_thread.h:167:       return *this;
	movq	-8(%rbp), %rax	# this, _7
# /usr/include/c++/11.3.0/bits/std_thread.h:168:     }
	leave	
	.cfi_def_cfa 7, 8
	ret	
	.cfi_endproc
.LFE4052:
	.size	_ZNSt6threadaSEOS_, .-_ZNSt6threadaSEOS_
	.section	.text._ZNSt6thread4swapERS_,"axG",@progbits,_ZNSt6thread4swapERS_,comdat
	.align 2
	.weak	_ZNSt6thread4swapERS_
	.type	_ZNSt6thread4swapERS_, @function
_ZNSt6thread4swapERS_:
.LFB4053:
	.cfi_startproc
	pushq	%rbp	#
	.cfi_def_cfa_offset 16
	.cfi_offset 6, -16
	movq	%rsp, %rbp	#,
	.cfi_def_cfa_register 6
	subq	$16, %rsp	#,
	movq	%rdi, -8(%rbp)	# this, this
	movq	%rsi, -16(%rbp)	# __t, __t
# /usr/include/c++/11.3.0/bits/std_thread.h:172:     { std::swap(_M_id, __t._M_id); }
	movq	-16(%rbp), %rdx	# __t, _1
# /usr/include/c++/11.3.0/bits/std_thread.h:172:     { std::swap(_M_id, __t._M_id); }
	movq	-8(%rbp), %rax	# this, _2
# /usr/include/c++/11.3.0/bits/std_thread.h:172:     { std::swap(_M_id, __t._M_id); }
	movq	%rdx, %rsi	# _1,
	movq	%rax, %rdi	# _2,
	call	_ZSt4swapINSt6thread2idEENSt9enable_ifIXsrSt6__and_IJSt6__not_ISt15__is_tuple_likeIT_EESt21is_move_constructibleIS6_ESt18is_move_assignableIS6_EEE5valueEvE4typeERS6_SG_	#
# /usr/include/c++/11.3.0/bits/std_thread.h:172:     { std::swap(_M_id, __t._M_id); }
	nop	
	leave	
	.cfi_def_cfa 7, 8
	ret	
	.cfi_endproc
.LFE4053:
	.size	_ZNSt6thread4swapERS_, .-_ZNSt6thread4swapERS_
	.section	.text._ZNKSt6thread8joinableEv,"axG",@progbits,_ZNKSt6thread8joinableEv,comdat
	.align 2
	.weak	_ZNKSt6thread8joinableEv
	.type	_ZNKSt6thread8joinableEv, @function
_ZNKSt6thread8joinableEv:
.LFB4055:
	.cfi_startproc
	pushq	%rbp	#
	.cfi_def_cfa_offset 16
	.cfi_offset 6, -16
	movq	%rsp, %rbp	#,
	.cfi_def_cfa_register 6
	subq	$32, %rsp	#,
	movq	%rdi, -24(%rbp)	# this, this
# /usr/include/c++/11.3.0/bits/std_thread.h:175:     joinable() const noexcept
	movq	%fs:40, %rax	# MEM[(<address-space-1> long unsigned int *)40B], tmp89
	movq	%rax, -8(%rbp)	# tmp89, D.192823
	xorl	%eax, %eax	# tmp89
# /usr/include/c++/11.3.0/bits/std_thread.h:176:     { return !(_M_id == id()); }
	leaq	-16(%rbp), %rax	#, tmp85
	movq	%rax, %rdi	# tmp85,
	call	_ZNSt6thread2idC1Ev	#
	movq	-16(%rbp), %rax	# D.87688, tmp86
	movq	-24(%rbp), %rdx	# this, tmp87
	movq	%rax, %rsi	# tmp86,
	movq	(%rdx), %rdi	# this_4(D)->_M_id,
	call	_ZSteqNSt6thread2idES0_	#
# /usr/include/c++/11.3.0/bits/std_thread.h:176:     { return !(_M_id == id()); }
	xorl	$1, %eax	#, _6
# /usr/include/c++/11.3.0/bits/std_thread.h:176:     { return !(_M_id == id()); }
	movq	-8(%rbp), %rdx	# D.192823, tmp90
	subq	%fs:40, %rdx	# MEM[(<address-space-1> long unsigned int *)40B], tmp90
	je	.L89	#,
	call	__stack_chk_fail@PLT	#
.L89:
	leave	
	.cfi_def_cfa 7, 8
	ret	
	.cfi_endproc
.LFE4055:
	.size	_ZNKSt6thread8joinableEv, .-_ZNKSt6thread8joinableEv
	.section	.text._ZSteqNSt6thread2idES0_,"axG",@progbits,_ZSteqNSt6thread2idES0_,comdat
	.weak	_ZSteqNSt6thread2idES0_
	.type	_ZSteqNSt6thread2idES0_, @function
_ZSteqNSt6thread2idES0_:
.LFB4063:
	.cfi_startproc
	pushq	%rbp	#
	.cfi_def_cfa_offset 16
	.cfi_offset 6, -16
	movq	%rsp, %rbp	#,
	.cfi_def_cfa_register 6
	movq	%rdi, -8(%rbp)	# __x, __x
	movq	%rsi, -16(%rbp)	# __y, __y
# /usr/include/c++/11.3.0/bits/std_thread.h:287:     return __x._M_thread == __y._M_thread;
	movq	-8(%rbp), %rdx	# __x._M_thread, _1
# /usr/include/c++/11.3.0/bits/std_thread.h:287:     return __x._M_thread == __y._M_thread;
	movq	-16(%rbp), %rax	# __y._M_thread, _2
	cmpq	%rax, %rdx	# _2, _1
	sete	%al	#, _4
# /usr/include/c++/11.3.0/bits/std_thread.h:288:   }
	popq	%rbp	#
	.cfi_def_cfa 7, 8
	ret	
	.cfi_endproc
.LFE4063:
	.size	_ZSteqNSt6thread2idES0_, .-_ZSteqNSt6thread2idES0_
	.section	.text._ZNSt9_Any_data9_M_accessEv,"axG",@progbits,_ZNSt9_Any_data9_M_accessEv,comdat
	.align 2
	.weak	_ZNSt9_Any_data9_M_accessEv
	.type	_ZNSt9_Any_data9_M_accessEv, @function
_ZNSt9_Any_data9_M_accessEv:
.LFB4269:
	.cfi_startproc
	pushq	%rbp	#
	.cfi_def_cfa_offset 16
	.cfi_offset 6, -16
	movq	%rsp, %rbp	#,
	.cfi_def_cfa_register 6
	movq	%rdi, -8(%rbp)	# this, this
# /usr/include/c++/11.3.0/bits/std_function.h:85:     void*       _M_access()       { return &_M_pod_data[0]; }
	movq	-8(%rbp), %rax	# this, _2
# /usr/include/c++/11.3.0/bits/std_function.h:85:     void*       _M_access()       { return &_M_pod_data[0]; }
	popq	%rbp	#
	.cfi_def_cfa 7, 8
	ret	
	.cfi_endproc
.LFE4269:
	.size	_ZNSt9_Any_data9_M_accessEv, .-_ZNSt9_Any_data9_M_accessEv
	.section	.text._ZNKSt9_Any_data9_M_accessEv,"axG",@progbits,_ZNKSt9_Any_data9_M_accessEv,comdat
	.align 2
	.weak	_ZNKSt9_Any_data9_M_accessEv
	.type	_ZNKSt9_Any_data9_M_accessEv, @function
_ZNKSt9_Any_data9_M_accessEv:
.LFB4270:
	.cfi_startproc
	pushq	%rbp	#
	.cfi_def_cfa_offset 16
	.cfi_offset 6, -16
	movq	%rsp, %rbp	#,
	.cfi_def_cfa_register 6
	movq	%rdi, -8(%rbp)	# this, this
# /usr/include/c++/11.3.0/bits/std_function.h:86:     const void* _M_access() const { return &_M_pod_data[0]; }
	movq	-8(%rbp), %rax	# this, _2
# /usr/include/c++/11.3.0/bits/std_function.h:86:     const void* _M_access() const { return &_M_pod_data[0]; }
	popq	%rbp	#
	.cfi_def_cfa 7, 8
	ret	
	.cfi_endproc
.LFE4270:
	.size	_ZNKSt9_Any_data9_M_accessEv, .-_ZNKSt9_Any_data9_M_accessEv
	.section	.text._ZNSt14_Function_baseD2Ev,"axG",@progbits,_ZNSt14_Function_baseD5Ev,comdat
	.align 2
	.weak	_ZNSt14_Function_baseD2Ev
	.type	_ZNSt14_Function_baseD2Ev, @function
_ZNSt14_Function_baseD2Ev:
.LFB4285:
	.cfi_startproc
	.cfi_personality 0x9b,DW.ref.__gxx_personality_v0
	.cfi_lsda 0x1b,.LLSDA4285
	pushq	%rbp	#
	.cfi_def_cfa_offset 16
	.cfi_offset 6, -16
	movq	%rsp, %rbp	#,
	.cfi_def_cfa_register 6
	subq	$16, %rsp	#,
	movq	%rdi, -8(%rbp)	# this, this
# /usr/include/c++/11.3.0/bits/std_function.h:243:       if (_M_manager)
	movq	-8(%rbp), %rax	# this, tmp86
	movq	16(%rax), %rax	# this_7(D)->_M_manager, _1
# /usr/include/c++/11.3.0/bits/std_function.h:243:       if (_M_manager)
	testq	%rax, %rax	# _1
	je	.L98	#,
# /usr/include/c++/11.3.0/bits/std_function.h:244: 	_M_manager(_M_functor, _M_functor, __destroy_functor);
	movq	-8(%rbp), %rax	# this, tmp87
	movq	16(%rax), %r8	# this_7(D)->_M_manager, _2
# /usr/include/c++/11.3.0/bits/std_function.h:244: 	_M_manager(_M_functor, _M_functor, __destroy_functor);
	movq	-8(%rbp), %rcx	# this, _3
# /usr/include/c++/11.3.0/bits/std_function.h:244: 	_M_manager(_M_functor, _M_functor, __destroy_functor);
	movq	-8(%rbp), %rax	# this, _4
# /usr/include/c++/11.3.0/bits/std_function.h:244: 	_M_manager(_M_functor, _M_functor, __destroy_functor);
	movl	$3, %edx	#,
	movq	%rcx, %rsi	# _3,
	movq	%rax, %rdi	# _4,
	call	*%r8	# _2
.L98:
# /usr/include/c++/11.3.0/bits/std_function.h:245:     }
	nop	
	leave	
	.cfi_def_cfa 7, 8
	ret	
	.cfi_endproc
.LFE4285:
	.globl	__gxx_personality_v0
	.section	.gcc_except_table._ZNSt14_Function_baseD2Ev,"aG",@progbits,_ZNSt14_Function_baseD5Ev,comdat
.LLSDA4285:
	.byte	0xff
	.byte	0xff
	.byte	0x1
	.uleb128 .LLSDACSE4285-.LLSDACSB4285
.LLSDACSB4285:
.LLSDACSE4285:
	.section	.text._ZNSt14_Function_baseD2Ev,"axG",@progbits,_ZNSt14_Function_baseD5Ev,comdat
	.size	_ZNSt14_Function_baseD2Ev, .-_ZNSt14_Function_baseD2Ev
	.weak	_ZNSt14_Function_baseD1Ev
	.set	_ZNSt14_Function_baseD1Ev,_ZNSt14_Function_baseD2Ev
	.section	.text._ZNKSt14_Function_base8_M_emptyEv,"axG",@progbits,_ZNKSt14_Function_base8_M_emptyEv,comdat
	.align 2
	.weak	_ZNKSt14_Function_base8_M_emptyEv
	.type	_ZNKSt14_Function_base8_M_emptyEv, @function
_ZNKSt14_Function_base8_M_emptyEv:
.LFB4287:
	.cfi_startproc
	pushq	%rbp	#
	.cfi_def_cfa_offset 16
	.cfi_offset 6, -16
	movq	%rsp, %rbp	#,
	.cfi_def_cfa_register 6
	movq	%rdi, -8(%rbp)	# this, this
# /usr/include/c++/11.3.0/bits/std_function.h:247:     bool _M_empty() const { return !_M_manager; }
	movq	-8(%rbp), %rax	# this, tmp85
	movq	16(%rax), %rax	# this_3(D)->_M_manager, _1
	testq	%rax, %rax	# _1
	sete	%al	#, _4
# /usr/include/c++/11.3.0/bits/std_function.h:247:     bool _M_empty() const { return !_M_manager; }
	popq	%rbp	#
	.cfi_def_cfa 7, 8
	ret	
	.cfi_endproc
.LFE4287:
	.size	_ZNKSt14_Function_base8_M_emptyEv, .-_ZNKSt14_Function_base8_M_emptyEv
	.section	.text._ZSt15make_error_codeSt11future_errc,"axG",@progbits,_ZSt15make_error_codeSt11future_errc,comdat
	.weak	_ZSt15make_error_codeSt11future_errc
	.type	_ZSt15make_error_codeSt11future_errc, @function
_ZSt15make_error_codeSt11future_errc:
.LFB4312:
	.cfi_startproc
	pushq	%rbp	#
	.cfi_def_cfa_offset 16
	.cfi_offset 6, -16
	movq	%rsp, %rbp	#,
	.cfi_def_cfa_register 6
	pushq	%rbx	#
	subq	$56, %rsp	#,
	.cfi_offset 3, -24
	movl	%edi, -52(%rbp)	# __errc, __errc
# /usr/include/c++/11.3.0/future:84:   { return error_code(static_cast<int>(__errc), future_category()); }
	movq	%fs:40, %rax	# MEM[(<address-space-1> long unsigned int *)40B], tmp91
	movq	%rax, -24(%rbp)	# tmp91, D.192824
	xorl	%eax, %eax	# tmp91
# /usr/include/c++/11.3.0/future:84:   { return error_code(static_cast<int>(__errc), future_category()); }
	call	_ZSt15future_categoryv@PLT	#
	movq	%rax, %rdx	#, _1
	movl	-52(%rbp), %ecx	# __errc, tmp86
	leaq	-48(%rbp), %rax	#, tmp87
	movl	%ecx, %esi	# tmp86,
	movq	%rax, %rdi	# tmp87,
	call	_ZNSt10error_codeC1EiRKNSt3_V214error_categoryE	#
# /usr/include/c++/11.3.0/future:84:   { return error_code(static_cast<int>(__errc), future_category()); }
	movq	-48(%rbp), %rax	# D.94210, D.191098
	movq	-40(%rbp), %rdx	# D.94210, D.191098
	movq	%rax, %rcx	# D.191098, tmp89
	movq	%rdx, %rbx	# D.191098,
# /usr/include/c++/11.3.0/future:84:   { return error_code(static_cast<int>(__errc), future_category()); }
	movq	-24(%rbp), %rax	# D.192824, tmp92
	subq	%fs:40, %rax	# MEM[(<address-space-1> long unsigned int *)40B], tmp92
	je	.L103	#,
	call	__stack_chk_fail@PLT	#
.L103:
	movl	%ecx, %eax	# <retval>,
	movq	-8(%rbp), %rbx	#,
	leave	
	.cfi_def_cfa 7, 8
	ret	
	.cfi_endproc
.LFE4312:
	.size	_ZSt15make_error_codeSt11future_errc, .-_ZSt15make_error_codeSt11future_errc
	.section	.text._ZNSt12future_errorC2ESt11future_errc,"axG",@progbits,_ZNSt12future_errorC5ESt11future_errc,comdat
	.align 2
	.weak	_ZNSt12future_errorC2ESt11future_errc
	.type	_ZNSt12future_errorC2ESt11future_errc, @function
_ZNSt12future_errorC2ESt11future_errc:
.LFB4315:
	.cfi_startproc
	pushq	%rbp	#
	.cfi_def_cfa_offset 16
	.cfi_offset 6, -16
	movq	%rsp, %rbp	#,
	.cfi_def_cfa_register 6
	pushq	%rbx	#
	subq	$24, %rsp	#,
	.cfi_offset 3, -24
	movq	%rdi, -24(%rbp)	# this, this
	movl	%esi, -28(%rbp)	# __errc, __errc
# /usr/include/c++/11.3.0/future:100:     : future_error(std::make_error_code(__errc))
	movl	-28(%rbp), %eax	# __errc, tmp83
	movl	%eax, %edi	# tmp83,
	call	_ZSt15make_error_codeSt11future_errc	#
	movq	%rdx, %rcx	#, tmp85
	movq	%rcx, %rdx	# tmp85, D.191097
	movq	%rax, %rcx	# D.191097, tmp86
	movq	%rdx, %rbx	# D.191097,
	movq	-24(%rbp), %rax	# this, tmp90
	movl	%ecx, %esi	# tmp88,
	movq	%rax, %rdi	# tmp90,
	call	_ZNSt12future_errorC1ESt10error_code	#
# /usr/include/c++/11.3.0/future:101:     { }
	nop	
	movq	-8(%rbp), %rbx	#,
	leave	
	.cfi_def_cfa 7, 8
	ret	
	.cfi_endproc
.LFE4315:
	.size	_ZNSt12future_errorC2ESt11future_errc, .-_ZNSt12future_errorC2ESt11future_errc
	.weak	_ZNSt12future_errorC1ESt11future_errc
	.set	_ZNSt12future_errorC1ESt11future_errc,_ZNSt12future_errorC2ESt11future_errc
	.section	.rodata
.LC0:
	.string	"std::future_error: "
	.section	.text._ZNSt12future_errorC2ESt10error_code,"axG",@progbits,_ZNSt12future_errorC5ESt10error_code,comdat
	.align 2
	.weak	_ZNSt12future_errorC2ESt10error_code
	.type	_ZNSt12future_errorC2ESt10error_code, @function
_ZNSt12future_errorC2ESt10error_code:
.LFB4319:
	.cfi_startproc
	.cfi_personality 0x9b,DW.ref.__gxx_personality_v0
	.cfi_lsda 0x1b,.LLSDA4319
	pushq	%rbp	#
	.cfi_def_cfa_offset 16
	.cfi_offset 6, -16
	movq	%rsp, %rbp	#,
	.cfi_def_cfa_register 6
	pushq	%rbx	#
	subq	$120, %rsp	#,
	.cfi_offset 3, -24
	movq	%rdi, -104(%rbp)	# this, this
	movq	%rdx, %rcx	# __ec, tmp88
	movq	%rsi, %rax	# tmp87, tmp86
	movq	%rdi, %rdx	#,
	movq	%rcx, %rdx	# tmp88,
	movq	%rax, -128(%rbp)	# tmp86, __ec
	movq	%rdx, -120(%rbp)	#, __ec
# /usr/include/c++/11.3.0/future:113:     future_error(error_code __ec)
	movq	%fs:40, %rax	# MEM[(<address-space-1> long unsigned int *)40B], tmp106
	movq	%rax, -24(%rbp)	# tmp106, D.192826
	xorl	%eax, %eax	# tmp106
# /usr/include/c++/11.3.0/future:114:     : logic_error("std::future_error: " + __ec.message()), _M_code(__ec)
	movq	-104(%rbp), %rbx	# this, _1
# /usr/include/c++/11.3.0/future:114:     : logic_error("std::future_error: " + __ec.message()), _M_code(__ec)
	leaq	-64(%rbp), %rax	#, tmp89
	leaq	-128(%rbp), %rdx	#, tmp90
	movq	%rdx, %rsi	# tmp90,
	movq	%rax, %rdi	# tmp89,
.LEHB0:
	call	_ZNKSt10error_code7messageB5cxx11Ev	#
.LEHE0:
# /usr/include/c++/11.3.0/future:114:     : logic_error("std::future_error: " + __ec.message()), _M_code(__ec)
	leaq	-96(%rbp), %rax	#, tmp91
	leaq	-64(%rbp), %rdx	#, tmp92
	leaq	.LC0(%rip), %rcx	#, tmp93
	movq	%rcx, %rsi	# tmp93,
	movq	%rax, %rdi	# tmp91,
.LEHB1:
	call	_ZStplIcSt11char_traitsIcESaIcEENSt7__cxx1112basic_stringIT_T0_T1_EEPKS5_OS8_	#
.LEHE1:
# /usr/include/c++/11.3.0/future:114:     : logic_error("std::future_error: " + __ec.message()), _M_code(__ec)
	leaq	-96(%rbp), %rax	#, tmp94
	movq	%rax, %rsi	# tmp94,
	movq	%rbx, %rdi	# _1,
.LEHB2:
	call	_ZNSt11logic_errorC2ERKNSt7__cxx1112basic_stringIcSt11char_traitsIcESaIcEEE@PLT	#
.LEHE2:
# /usr/include/c++/11.3.0/future:114:     : logic_error("std::future_error: " + __ec.message()), _M_code(__ec)
	leaq	-96(%rbp), %rax	#, tmp95
	movq	%rax, %rdi	# tmp95,
	call	_ZNSt7__cxx1112basic_stringIcSt11char_traitsIcESaIcEED1Ev	#
# /usr/include/c++/11.3.0/future:114:     : logic_error("std::future_error: " + __ec.message()), _M_code(__ec)
	leaq	-64(%rbp), %rax	#, tmp96
	movq	%rax, %rdi	# tmp96,
	call	_ZNSt7__cxx1112basic_stringIcSt11char_traitsIcESaIcEED1Ev	#
# /usr/include/c++/11.3.0/future:114:     : logic_error("std::future_error: " + __ec.message()), _M_code(__ec)
	leaq	16+_ZTVSt12future_error(%rip), %rdx	#, _2
	movq	-104(%rbp), %rax	# this, tmp97
	movq	%rdx, (%rax)	# _2, this_6(D)->D.94259.D.60206._vptr.exception
# /usr/include/c++/11.3.0/future:114:     : logic_error("std::future_error: " + __ec.message()), _M_code(__ec)
	movq	-104(%rbp), %rcx	# this, tmp98
	movq	-128(%rbp), %rax	# __ec, tmp99
	movq	-120(%rbp), %rdx	# __ec,
	movq	%rax, 16(%rcx)	# tmp99, this_6(D)->_M_code
	movq	%rdx, 24(%rcx)	#, this_6(D)->_M_code
# /usr/include/c++/11.3.0/future:115:     { }
	nop	
	movq	-24(%rbp), %rax	# D.192826, tmp107
	subq	%fs:40, %rax	# MEM[(<address-space-1> long unsigned int *)40B], tmp107
	je	.L108	#,
	jmp	.L111	#
.L110:
# /usr/include/c++/11.3.0/future:114:     : logic_error("std::future_error: " + __ec.message()), _M_code(__ec)
	movq	%rax, %rbx	#, tmp102
	leaq	-96(%rbp), %rax	#, tmp100
	movq	%rax, %rdi	# tmp100,
	call	_ZNSt7__cxx1112basic_stringIcSt11char_traitsIcESaIcEED1Ev	#
	jmp	.L107	#
.L109:
# /usr/include/c++/11.3.0/future:114:     : logic_error("std::future_error: " + __ec.message()), _M_code(__ec)
	movq	%rax, %rbx	#, tmp101
.L107:
# /usr/include/c++/11.3.0/future:114:     : logic_error("std::future_error: " + __ec.message()), _M_code(__ec)
	leaq	-64(%rbp), %rax	#, tmp105
	movq	%rax, %rdi	# tmp105,
	call	_ZNSt7__cxx1112basic_stringIcSt11char_traitsIcESaIcEED1Ev	#
	movq	%rbx, %rax	# tmp101, D.192825
	movq	%rax, %rdi	# D.192825,
.LEHB3:
	call	_Unwind_Resume@PLT	#
.LEHE3:
.L111:
# /usr/include/c++/11.3.0/future:115:     { }
	call	__stack_chk_fail@PLT	#
.L108:
	movq	-8(%rbp), %rbx	#,
	leave	
	.cfi_def_cfa 7, 8
	ret	
	.cfi_endproc
.LFE4319:
	.section	.gcc_except_table._ZNSt12future_errorC2ESt10error_code,"aG",@progbits,_ZNSt12future_errorC5ESt10error_code,comdat
.LLSDA4319:
	.byte	0xff
	.byte	0xff
	.byte	0x1
	.uleb128 .LLSDACSE4319-.LLSDACSB4319
.LLSDACSB4319:
	.uleb128 .LEHB0-.LFB4319
	.uleb128 .LEHE0-.LEHB0
	.uleb128 0
	.uleb128 0
	.uleb128 .LEHB1-.LFB4319
	.uleb128 .LEHE1-.LEHB1
	.uleb128 .L109-.LFB4319
	.uleb128 0
	.uleb128 .LEHB2-.LFB4319
	.uleb128 .LEHE2-.LEHB2
	.uleb128 .L110-.LFB4319
	.uleb128 0
	.uleb128 .LEHB3-.LFB4319
	.uleb128 .LEHE3-.LEHB3
	.uleb128 0
	.uleb128 0
.LLSDACSE4319:
	.section	.text._ZNSt12future_errorC2ESt10error_code,"axG",@progbits,_ZNSt12future_errorC5ESt10error_code,comdat
	.size	_ZNSt12future_errorC2ESt10error_code, .-_ZNSt12future_errorC2ESt10error_code
	.weak	_ZNSt12future_errorC1ESt10error_code
	.set	_ZNSt12future_errorC1ESt10error_code,_ZNSt12future_errorC2ESt10error_code
	.section	.text._ZStanSt6launchS_,"axG",@progbits,_ZStanSt6launchS_,comdat
	.weak	_ZStanSt6launchS_
	.type	_ZStanSt6launchS_, @function
_ZStanSt6launchS_:
.LFB4321:
	.cfi_startproc
	pushq	%rbp	#
	.cfi_def_cfa_offset 16
	.cfi_offset 6, -16
	movq	%rsp, %rbp	#,
	.cfi_def_cfa_register 6
	movl	%edi, -4(%rbp)	# __x, __x
	movl	%esi, -8(%rbp)	# __y, __y
# /usr/include/c++/11.3.0/future:145: 	static_cast<int>(__x) & static_cast<int>(__y));
	movl	-4(%rbp), %eax	# __x, tmp84
	andl	-8(%rbp), %eax	# __y, _3
# /usr/include/c++/11.3.0/future:146:   }
	popq	%rbp	#
	.cfi_def_cfa 7, 8
	ret	
	.cfi_endproc
.LFE4321:
	.size	_ZStanSt6launchS_, .-_ZStanSt6launchS_
	.section	.text._ZNKSt13__future_base12_Result_base8_DeleterclEPS0_,"axG",@progbits,_ZNKSt13__future_base12_Result_base8_DeleterclEPS0_,comdat
	.align 2
	.weak	_ZNKSt13__future_base12_Result_base8_DeleterclEPS0_
	.type	_ZNKSt13__future_base12_Result_base8_DeleterclEPS0_, @function
_ZNKSt13__future_base12_Result_base8_DeleterclEPS0_:
.LFB4336:
	.cfi_startproc
	pushq	%rbp	#
	.cfi_def_cfa_offset 16
	.cfi_offset 6, -16
	movq	%rsp, %rbp	#,
	.cfi_def_cfa_register 6
	subq	$16, %rsp	#,
	movq	%rdi, -8(%rbp)	# this, this
	movq	%rsi, -16(%rbp)	# __fr, __fr
# /usr/include/c++/11.3.0/future:212: 	void operator()(_Result_base* __fr) const { __fr->_M_destroy(); }
	movq	-16(%rbp), %rax	# __fr, tmp84
	movq	(%rax), %rax	# __fr_4(D)->_vptr._Result_base, _1
	movq	(%rax), %rdx	# *_1, _2
	movq	-16(%rbp), %rax	# __fr, tmp85
	movq	%rax, %rdi	# tmp85,
	call	*%rdx	# _2
# /usr/include/c++/11.3.0/future:212: 	void operator()(_Result_base* __fr) const { __fr->_M_destroy(); }
	nop	
	leave	
	.cfi_def_cfa 7, 8
	ret	
	.cfi_endproc
.LFE4336:
	.size	_ZNKSt13__future_base12_Result_base8_DeleterclEPS0_, .-_ZNKSt13__future_base12_Result_base8_DeleterclEPS0_
	.section	.text._ZNSt9once_flagC2Ev,"axG",@progbits,_ZNSt9once_flagC5Ev,comdat
	.align 2
	.weak	_ZNSt9once_flagC2Ev
	.type	_ZNSt9once_flagC2Ev, @function
_ZNSt9once_flagC2Ev:
.LFB4349:
	.cfi_startproc
	pushq	%rbp	#
	.cfi_def_cfa_offset 16
	.cfi_offset 6, -16
	movq	%rsp, %rbp	#,
	.cfi_def_cfa_register 6
	movq	%rdi, -8(%rbp)	# this, this
# /usr/include/c++/11.3.0/mutex:676:     constexpr once_flag() noexcept = default;
	movq	-8(%rbp), %rax	# this, tmp82
	movl	$0, (%rax)	#, this_2(D)->_M_once
	nop	
	popq	%rbp	#
	.cfi_def_cfa 7, 8
	ret	
	.cfi_endproc
.LFE4349:
	.size	_ZNSt9once_flagC2Ev, .-_ZNSt9once_flagC2Ev
	.weak	_ZNSt9once_flagC1Ev
	.set	_ZNSt9once_flagC1Ev,_ZNSt9once_flagC2Ev
	.section	.text._ZNSt13__future_base13_State_baseV2C2Ev,"axG",@progbits,_ZNSt13__future_base13_State_baseV2C5Ev,comdat
	.align 2
	.weak	_ZNSt13__future_base13_State_baseV2C2Ev
	.type	_ZNSt13__future_base13_State_baseV2C2Ev, @function
_ZNSt13__future_base13_State_baseV2C2Ev:
.LFB4351:
	.cfi_startproc
	pushq	%rbp	#
	.cfi_def_cfa_offset 16
	.cfi_offset 6, -16
	movq	%rsp, %rbp	#,
	.cfi_def_cfa_register 6
	subq	$16, %rsp	#,
	movq	%rdi, -8(%rbp)	# this, this
# /usr/include/c++/11.3.0/future:323:       _State_baseV2() noexcept : _M_result(), _M_status(_Status::__not_ready)
	leaq	16+_ZTVNSt13__future_base13_State_baseV2E(%rip), %rdx	#, _1
	movq	-8(%rbp), %rax	# this, tmp88
	movq	%rdx, (%rax)	# _1, this_8(D)->_vptr._State_baseV2
# /usr/include/c++/11.3.0/future:323:       _State_baseV2() noexcept : _M_result(), _M_status(_Status::__not_ready)
	movq	-8(%rbp), %rax	# this, tmp89
	addq	$8, %rax	#, _2
	movq	%rax, %rdi	# _2,
	call	_ZNSt10unique_ptrINSt13__future_base12_Result_baseENS1_8_DeleterEEC1IS2_vEEv	#
# /usr/include/c++/11.3.0/future:323:       _State_baseV2() noexcept : _M_result(), _M_status(_Status::__not_ready)
	movq	-8(%rbp), %rax	# this, tmp90
	addq	$16, %rax	#, _3
	movl	$0, %esi	#,
	movq	%rax, %rdi	# _3,
	call	_ZNSt23__atomic_futex_unsignedILj2147483648EEC1Ej	#
# /usr/include/c++/11.3.0/future:323:       _State_baseV2() noexcept : _M_result(), _M_status(_Status::__not_ready)
	movq	-8(%rbp), %rax	# this, tmp91
	addq	$20, %rax	#, _4
	movl	$0, %esi	#,
	movq	%rax, %rdi	# _4,
	call	_ZNSt11atomic_flagC1Eb	#
	movq	-8(%rbp), %rax	# this, tmp92
	addq	$24, %rax	#, _5
	movq	%rax, %rdi	# _5,
	call	_ZNSt9once_flagC1Ev	#
# /usr/include/c++/11.3.0/future:324: 	{ }
	nop	
	leave	
	.cfi_def_cfa 7, 8
	ret	
	.cfi_endproc
.LFE4351:
	.size	_ZNSt13__future_base13_State_baseV2C2Ev, .-_ZNSt13__future_base13_State_baseV2C2Ev
	.weak	_ZNSt13__future_base13_State_baseV2C1Ev
	.set	_ZNSt13__future_base13_State_baseV2C1Ev,_ZNSt13__future_base13_State_baseV2C2Ev
	.section	.text._ZNSt13__future_base13_State_baseV24waitEv,"axG",@progbits,_ZNSt13__future_base13_State_baseV24waitEv,comdat
	.align 2
	.weak	_ZNSt13__future_base13_State_baseV24waitEv
	.type	_ZNSt13__future_base13_State_baseV24waitEv, @function
_ZNSt13__future_base13_State_baseV24waitEv:
.LFB4353:
	.cfi_startproc
	pushq	%rbp	#
	.cfi_def_cfa_offset 16
	.cfi_offset 6, -16
	movq	%rsp, %rbp	#,
	.cfi_def_cfa_register 6
	subq	$64, %rsp	#,
	movq	%rdi, -56(%rbp)	# this, this
# /usr/include/c++/11.3.0/future:333: 	_M_complete_async();
	movq	-56(%rbp), %rax	# this, tmp94
	movq	(%rax), %rax	# this_7(D)->_vptr._State_baseV2, _1
	addq	$16, %rax	#, _2
	movq	(%rax), %rdx	# *_2, _3
	movq	-56(%rbp), %rax	# this, tmp95
	movq	%rax, %rdi	# tmp95,
	call	*%rdx	# _3
# /usr/include/c++/11.3.0/future:336: 	_M_status._M_load_when_equal(_Status::__ready, memory_order_acquire);
	movq	-56(%rbp), %rax	# this, tmp96
	addq	$16, %rax	#, _4
	movq	%rax, -24(%rbp)	# _4, this
	movl	$1, -48(%rbp)	#, __val
	movl	$2, -44(%rbp)	#, __mo
	movq	-24(%rbp), %rax	# this, tmp97
	movq	%rax, -16(%rbp)	# tmp97, this
	movl	-44(%rbp), %eax	# __mo, tmp98
	movl	%eax, -40(%rbp)	# tmp98, __mo
# /usr/include/c++/11.3.0/bits/atomic_futex.h:87:       return _M_data.load(__mo) & ~_Waiter_bit;
	movq	-16(%rbp), %rax	# this, _16
	movq	%rax, -8(%rbp)	# _16, this
	movl	-40(%rbp), %eax	# __mo, tmp99
	movl	%eax, -36(%rbp)	# tmp99, __m
# /usr/include/c++/11.3.0/bits/atomic_base.h:477: 	  = __m & __memory_order_mask;
	movl	-36(%rbp), %eax	# __m, tmp100
	movl	$65535, %esi	#,
	movl	%eax, %edi	# tmp100,
	call	_ZStanSt12memory_orderSt23__memory_order_modifier	#
	movl	%eax, -32(%rbp)	# tmp101, __b
# /usr/include/c++/11.3.0/bits/atomic_base.h:481: 	return __atomic_load_n(&_M_i, int(__m));
	movq	-8(%rbp), %rax	# this, _20
# /usr/include/c++/11.3.0/bits/atomic_base.h:481: 	return __atomic_load_n(&_M_i, int(__m));
	movl	(%rax), %eax	#* _20, _21
# /usr/include/c++/11.3.0/bits/atomic_base.h:481: 	return __atomic_load_n(&_M_i, int(__m));
	nop	
# /usr/include/c++/11.3.0/bits/atomic_futex.h:87:       return _M_data.load(__mo) & ~_Waiter_bit;
	andl	$2147483647, %eax	#, _24
# /usr/include/c++/11.3.0/bits/atomic_futex.h:209:       unsigned __i = _M_load(__mo);
	movl	%eax, -28(%rbp)	# _24, __i
# /usr/include/c++/11.3.0/bits/atomic_futex.h:210:       if ((__i & ~_Waiter_bit) == __val)
	movl	-28(%rbp), %eax	# __i, tmp102
	andl	$2147483647, %eax	#, _27
# /usr/include/c++/11.3.0/bits/atomic_futex.h:210:       if ((__i & ~_Waiter_bit) == __val)
	cmpl	%eax, -48(%rbp)	# _27, __val
	je	.L123	#,
# /usr/include/c++/11.3.0/bits/atomic_futex.h:213:       _M_load_and_test(__i, __val, true, __mo);
	movl	-44(%rbp), %ecx	# __mo, tmp103
	movl	-48(%rbp), %edx	# __val, tmp104
	movl	-28(%rbp), %esi	# __i, tmp105
	movq	-24(%rbp), %rax	# this, tmp106
	movl	%ecx, %r8d	# tmp103,
	movl	$1, %ecx	#,
	movq	%rax, %rdi	# tmp106,
	call	_ZNSt23__atomic_futex_unsignedILj2147483648EE16_M_load_and_testEjjbSt12memory_order	#
	jmp	.L121	#
.L123:
# /usr/include/c++/11.3.0/bits/atomic_futex.h:211: 	return;
	nop	
.L121:
# /usr/include/c++/11.3.0/future:337: 	return *_M_result;
	movq	-56(%rbp), %rax	# this, tmp107
	addq	$8, %rax	#, _5
	movq	%rax, %rdi	# _5,
	call	_ZNKSt10unique_ptrINSt13__future_base12_Result_baseENS1_8_DeleterEEdeEv	#
# /usr/include/c++/11.3.0/future:338:       }
	leave	
	.cfi_def_cfa 7, 8
	ret	
	.cfi_endproc
.LFE4353:
	.size	_ZNSt13__future_base13_State_baseV24waitEv, .-_ZNSt13__future_base13_State_baseV24waitEv
	.section	.text._ZNSt13__future_base13_State_baseV213_M_set_resultESt8functionIFSt10unique_ptrINS_12_Result_baseENS3_8_DeleterEEvEEb,"axG",@progbits,_ZNSt13__future_base13_State_baseV213_M_set_resultESt8functionIFSt10unique_ptrINS_12_Result_baseENS3_8_DeleterEEvEEb,comdat
	.align 2
	.weak	_ZNSt13__future_base13_State_baseV213_M_set_resultESt8functionIFSt10unique_ptrINS_12_Result_baseENS3_8_DeleterEEvEEb
	.type	_ZNSt13__future_base13_State_baseV213_M_set_resultESt8functionIFSt10unique_ptrINS_12_Result_baseENS3_8_DeleterEEvEEb, @function
_ZNSt13__future_base13_State_baseV213_M_set_resultESt8functionIFSt10unique_ptrINS_12_Result_baseENS3_8_DeleterEEvEEb:
.LFB4356:
	.cfi_startproc
	pushq	%rbp	#
	.cfi_def_cfa_offset 16
	.cfi_offset 6, -16
	movq	%rsp, %rbp	#,
	.cfi_def_cfa_register 6
	pushq	%r13	#
	pushq	%r12	#
	subq	$144, %rsp	#,
	.cfi_offset 13, -24
	.cfi_offset 12, -32
	movq	%rdi, -136(%rbp)	# this, this
	movq	%rsi, -144(%rbp)	# __res, __res
	movl	%edx, %eax	# __ignore_failure, tmp94
	movb	%al, -148(%rbp)	# tmp95, __ignore_failure
# /usr/include/c++/11.3.0/future:406:       _M_set_result(function<_Ptr_type()> __res, bool __ignore_failure = false)
	movq	%fs:40, %rax	# MEM[(<address-space-1> long unsigned int *)40B], tmp112
	movq	%rax, -24(%rbp)	# tmp112, D.192830
	xorl	%eax, %eax	# tmp112
# /usr/include/c++/11.3.0/future:408: 	bool __did_set = false;
	movb	$0, -113(%rbp)	#, __did_set
# /usr/include/c++/11.3.0/future:412: 		  std::__addressof(__res), std::__addressof(__did_set));
	leaq	-113(%rbp), %rax	#, tmp96
	movq	%rax, %rdi	# tmp96,
	call	_ZSt11__addressofIbEPT_RS0_	#
	movq	%rax, -80(%rbp)	# _1, D.98931
# /usr/include/c++/11.3.0/future:412: 		  std::__addressof(__res), std::__addressof(__did_set));
	movq	-144(%rbp), %rax	# __res, tmp97
	movq	%rax, %rdi	# tmp97,
	call	_ZSt11__addressofISt8functionIFSt10unique_ptrINSt13__future_base12_Result_baseENS3_8_DeleterEEvEEEPT_RS8_	#
	movq	%rax, -88(%rbp)	# _2, D.98930
# /usr/include/c++/11.3.0/future:411: 	call_once(_M_once, &_State_baseV2::_M_do_set, this,
	movq	-136(%rbp), %rax	# this, tmp98
	movq	%rax, -96(%rbp)	# tmp98, D.98929
# /usr/include/c++/11.3.0/future:411: 	call_once(_M_once, &_State_baseV2::_M_do_set, this,
	leaq	_ZNSt13__future_base13_State_baseV29_M_do_setEPSt8functionIFSt10unique_ptrINS_12_Result_baseENS3_8_DeleterEEvEEPb(%rip), %r12	#, D.191007
	movl	$0, %r13d	#, D.191007
	movq	%r12, -48(%rbp)	# D.191007, D.98928
	movq	%r13, -40(%rbp)	# D.191007, D.98928
# /usr/include/c++/11.3.0/future:411: 	call_once(_M_once, &_State_baseV2::_M_do_set, this,
	movq	-136(%rbp), %rax	# this, tmp99
	leaq	24(%rax), %rdi	#, _3
# /usr/include/c++/11.3.0/future:411: 	call_once(_M_once, &_State_baseV2::_M_do_set, this,
	leaq	-80(%rbp), %rsi	#, tmp100
	leaq	-88(%rbp), %rcx	#, tmp101
	leaq	-96(%rbp), %rdx	#, tmp102
	leaq	-48(%rbp), %rax	#, tmp103
	movq	%rsi, %r8	# tmp100,
	movq	%rax, %rsi	# tmp103,
	call	_ZSt9call_onceIMNSt13__future_base13_State_baseV2EFvPSt8functionIFSt10unique_ptrINS0_12_Result_baseENS4_8_DeleterEEvEEPbEJPS1_S9_SA_EEvRSt9once_flagOT_DpOT0_	#
# /usr/include/c++/11.3.0/future:413: 	if (__did_set)
	movzbl	-113(%rbp), %eax	# __did_set, __did_set.29_4
	testb	%al, %al	# __did_set.29_4
	je	.L125	#,
# /usr/include/c++/11.3.0/future:415: 	  _M_status._M_store_notify_all(_Status::__ready,
	movq	-136(%rbp), %rax	# this, tmp104
	addq	$16, %rax	#, _5
	movq	%rax, -72(%rbp)	# _5, this
	movl	$1, -112(%rbp)	#, __val
	movl	$3, -108(%rbp)	#, __mo
# /usr/include/c++/11.3.0/bits/atomic_futex.h:277:       unsigned* __futex = (unsigned *)(void *)&_M_data;
	movq	-72(%rbp), %rax	# this, tmp105
	movq	%rax, -64(%rbp)	# tmp105, __futex
# /usr/include/c++/11.3.0/bits/atomic_futex.h:278:       if (_M_data.exchange(__val, __mo) & _Waiter_bit)
	movq	-72(%rbp), %rax	# this, _38
	movq	%rax, -56(%rbp)	# _38, this
	movl	-112(%rbp), %eax	# __val, tmp106
	movl	%eax, -104(%rbp)	# tmp106, __i
	movl	-108(%rbp), %eax	# __mo, tmp107
	movl	%eax, -100(%rbp)	# tmp107, __m
# /usr/include/c++/11.3.0/bits/atomic_base.h:499: 	return __atomic_exchange_n(&_M_i, __i, int(__m));
	movq	-56(%rbp), %rax	# this, _42
# /usr/include/c++/11.3.0/bits/atomic_base.h:499: 	return __atomic_exchange_n(&_M_i, __i, int(__m));
	movl	-104(%rbp), %edx	# __i, tmp108
	xchgl	(%rax), %edx	#,* _42, _43
# /usr/include/c++/11.3.0/bits/atomic_base.h:499: 	return __atomic_exchange_n(&_M_i, __i, int(__m));
	nop	
# /usr/include/c++/11.3.0/bits/atomic_futex.h:278:       if (_M_data.exchange(__val, __mo) & _Waiter_bit)
	movl	%edx, %eax	# _43, _46
	shrl	$31, %eax	#, tmp109
# /usr/include/c++/11.3.0/bits/atomic_futex.h:278:       if (_M_data.exchange(__val, __mo) & _Waiter_bit)
	testb	%al, %al	# retval.34_47
	je	.L130	#,
# /usr/include/c++/11.3.0/bits/atomic_futex.h:279: 	_M_futex_notify_all(__futex);
	movq	-64(%rbp), %rax	# __futex, tmp110
	movq	%rax, %rdi	# tmp110,
	call	_ZNSt28__atomic_futex_unsigned_base19_M_futex_notify_allEPj@PLT	#
# /usr/include/c++/11.3.0/bits/atomic_futex.h:280:     }
	jmp	.L130	#
.L125:
# /usr/include/c++/11.3.0/future:417: 	else if (!__ignore_failure)
	movzbl	-148(%rbp), %eax	# __ignore_failure, tmp111
	xorl	$1, %eax	#, _6
# /usr/include/c++/11.3.0/future:417: 	else if (!__ignore_failure)
	testb	%al, %al	# _6
	je	.L131	#,
# /usr/include/c++/11.3.0/future:418:           __throw_future_error(int(future_errc::promise_already_satisfied));
	movl	$2, %edi	#,
	call	_ZSt20__throw_future_errori@PLT	#
.L130:
# /usr/include/c++/11.3.0/bits/atomic_futex.h:280:     }
	nop	
.L131:
# /usr/include/c++/11.3.0/future:419:       }
	nop	
	movq	-24(%rbp), %rax	# D.192830, tmp113
	subq	%fs:40, %rax	# MEM[(<address-space-1> long unsigned int *)40B], tmp113
	je	.L129	#,
	call	__stack_chk_fail@PLT	#
.L129:
	addq	$144, %rsp	#,
	popq	%r12	#
	popq	%r13	#
	popq	%rbp	#
	.cfi_def_cfa 7, 8
	ret	
	.cfi_endproc
.LFE4356:
	.size	_ZNSt13__future_base13_State_baseV213_M_set_resultESt8functionIFSt10unique_ptrINS_12_Result_baseENS3_8_DeleterEEvEEb, .-_ZNSt13__future_base13_State_baseV213_M_set_resultESt8functionIFSt10unique_ptrINS_12_Result_baseENS3_8_DeleterEEvEEb
	.section	.text._ZNSt13__future_base13_State_baseV216_M_break_promiseESt10unique_ptrINS_12_Result_baseENS2_8_DeleterEE,"axG",@progbits,_ZNSt13__future_base13_State_baseV216_M_break_promiseESt10unique_ptrINS_12_Result_baseENS2_8_DeleterEE,comdat
	.align 2
	.weak	_ZNSt13__future_base13_State_baseV216_M_break_promiseESt10unique_ptrINS_12_Result_baseENS2_8_DeleterEE
	.type	_ZNSt13__future_base13_State_baseV216_M_break_promiseESt10unique_ptrINS_12_Result_baseENS2_8_DeleterEE, @function
_ZNSt13__future_base13_State_baseV216_M_break_promiseESt10unique_ptrINS_12_Result_baseENS2_8_DeleterEE:
.LFB4379:
	.cfi_startproc
	pushq	%rbp	#
	.cfi_def_cfa_offset 16
	.cfi_offset 6, -16
	movq	%rsp, %rbp	#,
	.cfi_def_cfa_register 6
	subq	$112, %rsp	#,
	movq	%rdi, -104(%rbp)	# this, this
	movq	%rsi, -112(%rbp)	# __res, __res
# /usr/include/c++/11.3.0/future:443:       _M_break_promise(_Ptr_type __res)
	movq	%fs:40, %rax	# MEM[(<address-space-1> long unsigned int *)40B], tmp109
	movq	%rax, -8(%rbp)	# tmp109, D.192831
	xorl	%eax, %eax	# tmp109
# /usr/include/c++/11.3.0/future:445: 	if (static_cast<bool>(__res))
	movq	-112(%rbp), %rax	# __res, tmp92
	movq	%rax, %rdi	# tmp92,
	call	_ZNKSt10unique_ptrINSt13__future_base12_Result_baseENS1_8_DeleterEEcvbEv	#
# /usr/include/c++/11.3.0/future:445: 	if (static_cast<bool>(__res))
	testb	%al, %al	# retval.35_9
	je	.L137	#,
# /usr/include/c++/11.3.0/future:448: 	      make_exception_ptr(future_error(future_errc::broken_promise));
	leaq	-48(%rbp), %rax	#, tmp93
	movl	$4, %esi	#,
	movq	%rax, %rdi	# tmp93,
	call	_ZNSt12future_errorC1ESt11future_errc	#
# /usr/include/c++/11.3.0/future:448: 	      make_exception_ptr(future_error(future_errc::broken_promise));
	leaq	-80(%rbp), %rax	#, tmp94
	leaq	-48(%rbp), %rdx	#, tmp95
	movq	%rdx, %rsi	# tmp95,
	movq	%rax, %rdi	# tmp94,
	call	_ZSt18make_exception_ptrISt12future_errorENSt15__exception_ptr13exception_ptrET_	#
# /usr/include/c++/11.3.0/future:447: 	    __res->_M_error =
	movq	-112(%rbp), %rax	# __res, tmp96
	movq	%rax, %rdi	# tmp96,
	call	_ZNKSt10unique_ptrINSt13__future_base12_Result_baseENS1_8_DeleterEEptEv	#
# /usr/include/c++/11.3.0/future:448: 	      make_exception_ptr(future_error(future_errc::broken_promise));
	leaq	8(%rax), %rdx	#, _2
	leaq	-80(%rbp), %rax	#, tmp97
	movq	%rax, %rsi	# tmp97,
	movq	%rdx, %rdi	# _2,
	call	_ZNSt15__exception_ptr13exception_ptraSEOS0_	#
# /usr/include/c++/11.3.0/future:448: 	      make_exception_ptr(future_error(future_errc::broken_promise));
	leaq	-80(%rbp), %rax	#, tmp98
	movq	%rax, %rdi	# tmp98,
	call	_ZNSt15__exception_ptr13exception_ptrD1Ev	#
# /usr/include/c++/11.3.0/future:448: 	      make_exception_ptr(future_error(future_errc::broken_promise));
	leaq	-48(%rbp), %rax	#, tmp99
	movq	%rax, %rdi	# tmp99,
	call	_ZNSt12future_errorD1Ev@PLT	#
# /usr/include/c++/11.3.0/future:453: 	    _M_result.swap(__res);
	movq	-104(%rbp), %rax	# this, tmp100
	leaq	8(%rax), %rdx	#, _3
	movq	-112(%rbp), %rax	# __res, tmp101
	movq	%rax, %rsi	# tmp101,
	movq	%rdx, %rdi	# _3,
	call	_ZNSt10unique_ptrINSt13__future_base12_Result_baseENS1_8_DeleterEE4swapERS3_	#
# /usr/include/c++/11.3.0/future:455: 	    _M_status._M_store_notify_all(_Status::__ready,
	movq	-104(%rbp), %rax	# this, tmp102
	addq	$16, %rax	#, _4
	movq	%rax, -72(%rbp)	# _4, this
	movl	$1, -96(%rbp)	#, __val
	movl	$3, -92(%rbp)	#, __mo
# /usr/include/c++/11.3.0/bits/atomic_futex.h:277:       unsigned* __futex = (unsigned *)(void *)&_M_data;
	movq	-72(%rbp), %rax	# this, tmp103
	movq	%rax, -64(%rbp)	# tmp103, __futex
# /usr/include/c++/11.3.0/bits/atomic_futex.h:278:       if (_M_data.exchange(__val, __mo) & _Waiter_bit)
	movq	-72(%rbp), %rax	# this, _24
	movq	%rax, -56(%rbp)	# _24, this
	movl	-96(%rbp), %eax	# __val, tmp104
	movl	%eax, -88(%rbp)	# tmp104, __i
	movl	-92(%rbp), %eax	# __mo, tmp105
	movl	%eax, -84(%rbp)	# tmp105, __m
# /usr/include/c++/11.3.0/bits/atomic_base.h:499: 	return __atomic_exchange_n(&_M_i, __i, int(__m));
	movq	-56(%rbp), %rax	# this, _28
# /usr/include/c++/11.3.0/bits/atomic_base.h:499: 	return __atomic_exchange_n(&_M_i, __i, int(__m));
	movl	-88(%rbp), %edx	# __i, tmp106
	xchgl	(%rax), %edx	#,* _28, _29
# /usr/include/c++/11.3.0/bits/atomic_base.h:499: 	return __atomic_exchange_n(&_M_i, __i, int(__m));
	nop	
# /usr/include/c++/11.3.0/bits/atomic_futex.h:278:       if (_M_data.exchange(__val, __mo) & _Waiter_bit)
	movl	%edx, %eax	# _29, _32
	shrl	$31, %eax	#, tmp107
# /usr/include/c++/11.3.0/bits/atomic_futex.h:278:       if (_M_data.exchange(__val, __mo) & _Waiter_bit)
	testb	%al, %al	# retval.34_33
	je	.L138	#,
# /usr/include/c++/11.3.0/bits/atomic_futex.h:279: 	_M_futex_notify_all(__futex);
	movq	-64(%rbp), %rax	# __futex, tmp108
	movq	%rax, %rdi	# tmp108,
	call	_ZNSt28__atomic_futex_unsigned_base19_M_futex_notify_allEPj@PLT	#
.L138:
# /usr/include/c++/11.3.0/bits/atomic_futex.h:280:     }
	nop	
.L137:
# /usr/include/c++/11.3.0/future:458:       }
	nop	
	movq	-8(%rbp), %rax	# D.192831, tmp110
	subq	%fs:40, %rax	# MEM[(<address-space-1> long unsigned int *)40B], tmp110
	je	.L136	#,
	call	__stack_chk_fail@PLT	#
.L136:
	leave	
	.cfi_def_cfa 7, 8
	ret	
	.cfi_endproc
.LFE4379:
	.size	_ZNSt13__future_base13_State_baseV216_M_break_promiseESt10unique_ptrINS_12_Result_baseENS2_8_DeleterEE, .-_ZNSt13__future_base13_State_baseV216_M_break_promiseESt10unique_ptrINS_12_Result_baseENS2_8_DeleterEE
	.section	.text._ZNSt13__future_base13_State_baseV221_M_set_retrieved_flagEv,"axG",@progbits,_ZNSt13__future_base13_State_baseV221_M_set_retrieved_flagEv,comdat
	.align 2
	.weak	_ZNSt13__future_base13_State_baseV221_M_set_retrieved_flagEv
	.type	_ZNSt13__future_base13_State_baseV221_M_set_retrieved_flagEv, @function
_ZNSt13__future_base13_State_baseV221_M_set_retrieved_flagEv:
.LFB4380:
	.cfi_startproc
	pushq	%rbp	#
	.cfi_def_cfa_offset 16
	.cfi_offset 6, -16
	movq	%rsp, %rbp	#,
	.cfi_def_cfa_register 6
	subq	$32, %rsp	#,
	movq	%rdi, -24(%rbp)	# this, this
# /usr/include/c++/11.3.0/future:464: 	if (_M_retrieved.test_and_set())
	movq	-24(%rbp), %rax	# this, tmp85
	addq	$20, %rax	#, _1
	movq	%rax, -8(%rbp)	# _1, this
	movl	$5, -12(%rbp)	#, __m
# /usr/include/c++/11.3.0/bits/atomic_base.h:205:       return __atomic_test_and_set (&_M_i, int(__m));
	movq	-8(%rbp), %rdx	# this, _8
# /usr/include/c++/11.3.0/bits/atomic_base.h:205:       return __atomic_test_and_set (&_M_i, int(__m));
	movl	$1, %eax	#, tmp86
	xchgb	(%rdx), %al	#,* _8, D.192627
# /usr/include/c++/11.3.0/bits/atomic_base.h:205:       return __atomic_test_and_set (&_M_i, int(__m));
	nop	
# /usr/include/c++/11.3.0/future:464: 	if (_M_retrieved.test_and_set())
	testb	%al, %al	# D.192627
	je	.L142	#,
# /usr/include/c++/11.3.0/future:465: 	  __throw_future_error(int(future_errc::future_already_retrieved));
	movl	$1, %edi	#,
	call	_ZSt20__throw_future_errori@PLT	#
.L142:
# /usr/include/c++/11.3.0/future:466:       }
	nop	
	leave	
	.cfi_def_cfa 7, 8
	ret	
	.cfi_endproc
.LFE4380:
	.size	_ZNSt13__future_base13_State_baseV221_M_set_retrieved_flagEv, .-_ZNSt13__future_base13_State_baseV221_M_set_retrieved_flagEv
	.section	.text._ZNSt13__future_base13_State_baseV29_M_do_setEPSt8functionIFSt10unique_ptrINS_12_Result_baseENS3_8_DeleterEEvEEPb,"axG",@progbits,_ZNSt13__future_base13_State_baseV29_M_do_setEPSt8functionIFSt10unique_ptrINS_12_Result_baseENS3_8_DeleterEEvEEPb,comdat
	.align 2
	.weak	_ZNSt13__future_base13_State_baseV29_M_do_setEPSt8functionIFSt10unique_ptrINS_12_Result_baseENS3_8_DeleterEEvEEPb
	.type	_ZNSt13__future_base13_State_baseV29_M_do_setEPSt8functionIFSt10unique_ptrINS_12_Result_baseENS3_8_DeleterEEvEEPb, @function
_ZNSt13__future_base13_State_baseV29_M_do_setEPSt8functionIFSt10unique_ptrINS_12_Result_baseENS3_8_DeleterEEvEEPb:
.LFB4389:
	.cfi_startproc
	pushq	%rbp	#
	.cfi_def_cfa_offset 16
	.cfi_offset 6, -16
	movq	%rsp, %rbp	#,
	.cfi_def_cfa_register 6
	subq	$48, %rsp	#,
	movq	%rdi, -24(%rbp)	# this, this
	movq	%rsi, -32(%rbp)	# __f, __f
	movq	%rdx, -40(%rbp)	# __did_set, __did_set
# /usr/include/c++/11.3.0/future:569:       _M_do_set(function<_Ptr_type()>* __f, bool* __did_set)
	movq	%fs:40, %rax	# MEM[(<address-space-1> long unsigned int *)40B], tmp89
	movq	%rax, -8(%rbp)	# tmp89, D.192833
	xorl	%eax, %eax	# tmp89
# /usr/include/c++/11.3.0/future:571:         _Ptr_type __res = (*__f)();
	leaq	-16(%rbp), %rax	#, tmp83
	movq	-32(%rbp), %rdx	# __f, tmp84
	movq	%rdx, %rsi	# tmp84,
	movq	%rax, %rdi	# tmp83,
	call	_ZNKSt8functionIFSt10unique_ptrINSt13__future_base12_Result_baseENS2_8_DeleterEEvEEclEv	#
# /usr/include/c++/11.3.0/future:575: 	*__did_set = true;
	movq	-40(%rbp), %rax	# __did_set, tmp85
	movb	$1, (%rax)	#, *__did_set_5(D)
# /usr/include/c++/11.3.0/future:576:         _M_result.swap(__res); // nothrow
	movq	-24(%rbp), %rax	# this, tmp86
	leaq	8(%rax), %rdx	#, _1
	leaq	-16(%rbp), %rax	#, tmp87
	movq	%rax, %rsi	# tmp87,
	movq	%rdx, %rdi	# _1,
	call	_ZNSt10unique_ptrINSt13__future_base12_Result_baseENS1_8_DeleterEE4swapERS3_	#
# /usr/include/c++/11.3.0/future:577:       }
	leaq	-16(%rbp), %rax	#, tmp88
	movq	%rax, %rdi	# tmp88,
	call	_ZNSt10unique_ptrINSt13__future_base12_Result_baseENS1_8_DeleterEED1Ev	#
	movq	-8(%rbp), %rax	# D.192833, tmp90
	subq	%fs:40, %rax	# MEM[(<address-space-1> long unsigned int *)40B], tmp90
	je	.L144	#,
	call	__stack_chk_fail@PLT	#
.L144:
	leave	
	.cfi_def_cfa 7, 8
	ret	
	.cfi_endproc
.LFE4389:
	.size	_ZNSt13__future_base13_State_baseV29_M_do_setEPSt8functionIFSt10unique_ptrINS_12_Result_baseENS3_8_DeleterEEvEEPb, .-_ZNSt13__future_base13_State_baseV29_M_do_setEPSt8functionIFSt10unique_ptrINS_12_Result_baseENS3_8_DeleterEEvEEPb
	.section	.text._ZNSt13__future_base13_State_baseV217_M_complete_asyncEv,"axG",@progbits,_ZNSt13__future_base13_State_baseV217_M_complete_asyncEv,comdat
	.align 2
	.weak	_ZNSt13__future_base13_State_baseV217_M_complete_asyncEv
	.type	_ZNSt13__future_base13_State_baseV217_M_complete_asyncEv, @function
_ZNSt13__future_base13_State_baseV217_M_complete_asyncEv:
.LFB4390:
	.cfi_startproc
	pushq	%rbp	#
	.cfi_def_cfa_offset 16
	.cfi_offset 6, -16
	movq	%rsp, %rbp	#,
	.cfi_def_cfa_register 6
	movq	%rdi, -8(%rbp)	# this, this
# /usr/include/c++/11.3.0/future:580:       virtual void _M_complete_async() { }
	nop	
	popq	%rbp	#
	.cfi_def_cfa 7, 8
	ret	
	.cfi_endproc
.LFE4390:
	.size	_ZNSt13__future_base13_State_baseV217_M_complete_asyncEv, .-_ZNSt13__future_base13_State_baseV217_M_complete_asyncEv
	.section	.text._ZNKSt13__future_base13_State_baseV221_M_is_deferred_futureEv,"axG",@progbits,_ZNKSt13__future_base13_State_baseV221_M_is_deferred_futureEv,comdat
	.align 2
	.weak	_ZNKSt13__future_base13_State_baseV221_M_is_deferred_futureEv
	.type	_ZNKSt13__future_base13_State_baseV221_M_is_deferred_futureEv, @function
_ZNKSt13__future_base13_State_baseV221_M_is_deferred_futureEv:
.LFB4391:
	.cfi_startproc
	pushq	%rbp	#
	.cfi_def_cfa_offset 16
	.cfi_offset 6, -16
	movq	%rsp, %rbp	#,
	.cfi_def_cfa_register 6
	movq	%rdi, -8(%rbp)	# this, this
# /usr/include/c++/11.3.0/future:583:       virtual bool _M_is_deferred_future() const { return false; }
	movl	$0, %eax	#, _1
# /usr/include/c++/11.3.0/future:583:       virtual bool _M_is_deferred_future() const { return false; }
	popq	%rbp	#
	.cfi_def_cfa 7, 8
	ret	
	.cfi_endproc
.LFE4391:
	.size	_ZNKSt13__future_base13_State_baseV221_M_is_deferred_futureEv, .-_ZNKSt13__future_base13_State_baseV221_M_is_deferred_futureEv
	.section	.text._ZNSt15__exception_ptreqERKNS_13exception_ptrES2_,"axG",@progbits,_ZNSt15__exception_ptreqERKNS_13exception_ptrES2_,comdat
	.weak	_ZNSt15__exception_ptreqERKNS_13exception_ptrES2_
	.type	_ZNSt15__exception_ptreqERKNS_13exception_ptrES2_, @function
_ZNSt15__exception_ptreqERKNS_13exception_ptrES2_:
.LFB4403:
	.cfi_startproc
	pushq	%rbp	#
	.cfi_def_cfa_offset 16
	.cfi_offset 6, -16
	movq	%rsp, %rbp	#,
	.cfi_def_cfa_register 6
	movq	%rdi, -8(%rbp)	# D.32022, D.32022
	movq	%rsi, -16(%rbp)	# D.32023, D.32023
# /usr/include/c++/11.3.0/bits/exception_ptr.h:92:       void* _M_exception_object;
	movq	-8(%rbp), %rax	# D.32022, tmp86
	movq	(%rax), %rdx	# _5(D)->_M_exception_object, _1
	movq	-16(%rbp), %rax	# D.32023, tmp87
	movq	(%rax), %rax	# _6(D)->_M_exception_object, _2
# /usr/include/c++/11.3.0/bits/exception_ptr.h:162:       operator==(const exception_ptr&, const exception_ptr&) noexcept = default;
	cmpq	%rax, %rdx	# _2, _1
	je	.L149	#,
# /usr/include/c++/11.3.0/bits/exception_ptr.h:162:       operator==(const exception_ptr&, const exception_ptr&) noexcept = default;
	movl	$0, %eax	#, _3
	jmp	.L150	#
.L149:
# /usr/include/c++/11.3.0/bits/exception_ptr.h:162:       operator==(const exception_ptr&, const exception_ptr&) noexcept = default;
	movl	$1, %eax	#, _3
.L150:
	popq	%rbp	#
	.cfi_def_cfa 7, 8
	ret	
	.cfi_endproc
.LFE4403:
	.size	_ZNSt15__exception_ptreqERKNS_13exception_ptrES2_, .-_ZNSt15__exception_ptreqERKNS_13exception_ptrES2_
	.section	.text._ZNSt12__shared_ptrINSt13__future_base13_State_baseV2ELN9__gnu_cxx12_Lock_policyE2EED2Ev,"axG",@progbits,_ZNSt12__shared_ptrINSt13__future_base13_State_baseV2ELN9__gnu_cxx12_Lock_policyE2EED5Ev,comdat
	.align 2
	.weak	_ZNSt12__shared_ptrINSt13__future_base13_State_baseV2ELN9__gnu_cxx12_Lock_policyE2EED2Ev
	.type	_ZNSt12__shared_ptrINSt13__future_base13_State_baseV2ELN9__gnu_cxx12_Lock_policyE2EED2Ev, @function
_ZNSt12__shared_ptrINSt13__future_base13_State_baseV2ELN9__gnu_cxx12_Lock_policyE2EED2Ev:
.LFB4423:
	.cfi_startproc
	pushq	%rbp	#
	.cfi_def_cfa_offset 16
	.cfi_offset 6, -16
	movq	%rsp, %rbp	#,
	.cfi_def_cfa_register 6
	subq	$16, %rsp	#,
	movq	%rdi, -8(%rbp)	# this, this
# /usr/include/c++/11.3.0/bits/shared_ptr_base.h:1154:       ~__shared_ptr() = default;
	movq	-8(%rbp), %rax	# this, tmp83
	addq	$8, %rax	#, _1
	movq	%rax, %rdi	# _1,
	call	_ZNSt14__shared_countILN9__gnu_cxx12_Lock_policyE2EED1Ev	#
	nop	
	leave	
	.cfi_def_cfa 7, 8
	ret	
	.cfi_endproc
.LFE4423:
	.size	_ZNSt12__shared_ptrINSt13__future_base13_State_baseV2ELN9__gnu_cxx12_Lock_policyE2EED2Ev, .-_ZNSt12__shared_ptrINSt13__future_base13_State_baseV2ELN9__gnu_cxx12_Lock_policyE2EED2Ev
	.weak	_ZNSt12__shared_ptrINSt13__future_base13_State_baseV2ELN9__gnu_cxx12_Lock_policyE2EED1Ev
	.set	_ZNSt12__shared_ptrINSt13__future_base13_State_baseV2ELN9__gnu_cxx12_Lock_policyE2EED1Ev,_ZNSt12__shared_ptrINSt13__future_base13_State_baseV2ELN9__gnu_cxx12_Lock_policyE2EED2Ev
	.section	.text._ZNSt10shared_ptrINSt13__future_base13_State_baseV2EED2Ev,"axG",@progbits,_ZNSt10shared_ptrINSt13__future_base13_State_baseV2EED5Ev,comdat
	.align 2
	.weak	_ZNSt10shared_ptrINSt13__future_base13_State_baseV2EED2Ev
	.type	_ZNSt10shared_ptrINSt13__future_base13_State_baseV2EED2Ev, @function
_ZNSt10shared_ptrINSt13__future_base13_State_baseV2EED2Ev:
.LFB4425:
	.cfi_startproc
	pushq	%rbp	#
	.cfi_def_cfa_offset 16
	.cfi_offset 6, -16
	movq	%rsp, %rbp	#,
	.cfi_def_cfa_register 6
	subq	$16, %rsp	#,
	movq	%rdi, -8(%rbp)	# this, this
# /usr/include/c++/11.3.0/bits/shared_ptr.h:122:     class shared_ptr : public __shared_ptr<_Tp>
	movq	-8(%rbp), %rax	# this, _1
	movq	%rax, %rdi	# _1,
	call	_ZNSt12__shared_ptrINSt13__future_base13_State_baseV2ELN9__gnu_cxx12_Lock_policyE2EED2Ev	#
	nop	
	leave	
	.cfi_def_cfa 7, 8
	ret	
	.cfi_endproc
.LFE4425:
	.size	_ZNSt10shared_ptrINSt13__future_base13_State_baseV2EED2Ev, .-_ZNSt10shared_ptrINSt13__future_base13_State_baseV2EED2Ev
	.weak	_ZNSt10shared_ptrINSt13__future_base13_State_baseV2EED1Ev
	.set	_ZNSt10shared_ptrINSt13__future_base13_State_baseV2EED1Ev,_ZNSt10shared_ptrINSt13__future_base13_State_baseV2EED2Ev
	.section	.text._ZNSt8functionIFSt10unique_ptrINSt13__future_base12_Result_baseENS2_8_DeleterEEvEED2Ev,"axG",@progbits,_ZNSt8functionIFSt10unique_ptrINSt13__future_base12_Result_baseENS2_8_DeleterEEvEED5Ev,comdat
	.align 2
	.weak	_ZNSt8functionIFSt10unique_ptrINSt13__future_base12_Result_baseENS2_8_DeleterEEvEED2Ev
	.type	_ZNSt8functionIFSt10unique_ptrINSt13__future_base12_Result_baseENS2_8_DeleterEEvEED2Ev, @function
_ZNSt8functionIFSt10unique_ptrINSt13__future_base12_Result_baseENS2_8_DeleterEEvEED2Ev:
.LFB4542:
	.cfi_startproc
	pushq	%rbp	#
	.cfi_def_cfa_offset 16
	.cfi_offset 6, -16
	movq	%rsp, %rbp	#,
	.cfi_def_cfa_register 6
	subq	$16, %rsp	#,
	movq	%rdi, -8(%rbp)	# this, this
# /usr/include/c++/11.3.0/bits/std_function.h:334:     class function<_Res(_ArgTypes...)>
	movq	-8(%rbp), %rax	# this, _1
	movq	%rax, %rdi	# _1,
	call	_ZNSt14_Function_baseD2Ev	#
	nop	
	leave	
	.cfi_def_cfa 7, 8
	ret	
	.cfi_endproc
.LFE4542:
	.size	_ZNSt8functionIFSt10unique_ptrINSt13__future_base12_Result_baseENS2_8_DeleterEEvEED2Ev, .-_ZNSt8functionIFSt10unique_ptrINSt13__future_base12_Result_baseENS2_8_DeleterEEvEED2Ev
	.weak	_ZNSt8functionIFSt10unique_ptrINSt13__future_base12_Result_baseENS2_8_DeleterEEvEED1Ev
	.set	_ZNSt8functionIFSt10unique_ptrINSt13__future_base12_Result_baseENS2_8_DeleterEEvEED1Ev,_ZNSt8functionIFSt10unique_ptrINSt13__future_base12_Result_baseENS2_8_DeleterEEvEED2Ev
	.section	.text._ZNSt13__future_base21_Async_state_commonV217_M_complete_asyncEv,"axG",@progbits,_ZNSt13__future_base21_Async_state_commonV217_M_complete_asyncEv,comdat
	.align 2
	.weak	_ZNSt13__future_base21_Async_state_commonV217_M_complete_asyncEv
	.type	_ZNSt13__future_base21_Async_state_commonV217_M_complete_asyncEv, @function
_ZNSt13__future_base21_Async_state_commonV217_M_complete_asyncEv:
.LFB4577:
	.cfi_startproc
	pushq	%rbp	#
	.cfi_def_cfa_offset 16
	.cfi_offset 6, -16
	movq	%rsp, %rbp	#,
	.cfi_def_cfa_register 6
	subq	$16, %rsp	#,
	movq	%rdi, -8(%rbp)	# this, this
# /usr/include/c++/11.3.0/future:1698:     virtual void _M_complete_async() { _M_join(); }
	movq	-8(%rbp), %rax	# this, tmp82
	movq	%rax, %rdi	# tmp82,
	call	_ZNSt13__future_base21_Async_state_commonV27_M_joinEv	#
# /usr/include/c++/11.3.0/future:1698:     virtual void _M_complete_async() { _M_join(); }
	nop	
	leave	
	.cfi_def_cfa 7, 8
	ret	
	.cfi_endproc
.LFE4577:
	.size	_ZNSt13__future_base21_Async_state_commonV217_M_complete_asyncEv, .-_ZNSt13__future_base21_Async_state_commonV217_M_complete_asyncEv
	.section	.text._ZNSt13__future_base21_Async_state_commonV27_M_joinEv,"axG",@progbits,_ZNSt13__future_base21_Async_state_commonV27_M_joinEv,comdat
	.align 2
	.weak	_ZNSt13__future_base21_Async_state_commonV27_M_joinEv
	.type	_ZNSt13__future_base21_Async_state_commonV27_M_joinEv, @function
_ZNSt13__future_base21_Async_state_commonV27_M_joinEv:
.LFB4578:
	.cfi_startproc
	pushq	%rbp	#
	.cfi_def_cfa_offset 16
	.cfi_offset 6, -16
	movq	%rsp, %rbp	#,
	.cfi_def_cfa_register 6
	subq	$64, %rsp	#,
	movq	%rdi, -56(%rbp)	# this, this
# /usr/include/c++/11.3.0/future:1700:     void _M_join() { std::call_once(_M_once, &thread::join, &_M_thread); }
	movq	%fs:40, %rcx	# MEM[(<address-space-1> long unsigned int *)40B], tmp90
	movq	%rcx, -8(%rbp)	# tmp90, D.192835
	xorl	%ecx, %ecx	# tmp90
# /usr/include/c++/11.3.0/future:1700:     void _M_join() { std::call_once(_M_once, &thread::join, &_M_thread); }
	movq	-56(%rbp), %rcx	# this, tmp85
	addq	$32, %rcx	#, _1
	movq	%rcx, -40(%rbp)	# _1, D.108334
# /usr/include/c++/11.3.0/future:1700:     void _M_join() { std::call_once(_M_once, &thread::join, &_M_thread); }
	movq	_ZNSt6thread4joinEv@GOTPCREL(%rip), %rcx	#, tmp86
	movq	%rcx, %rax	# tmp86, D.190728
	movl	$0, %edx	#, D.190728
	movq	%rax, -32(%rbp)	# D.190728, D.108333
	movq	%rdx, -24(%rbp)	# D.190728, D.108333
# /usr/include/c++/11.3.0/future:1700:     void _M_join() { std::call_once(_M_once, &thread::join, &_M_thread); }
	movq	-56(%rbp), %rax	# this, tmp87
	leaq	40(%rax), %rcx	#, _2
# /usr/include/c++/11.3.0/future:1700:     void _M_join() { std::call_once(_M_once, &thread::join, &_M_thread); }
	leaq	-40(%rbp), %rdx	#, tmp88
	leaq	-32(%rbp), %rax	#, tmp89
	movq	%rax, %rsi	# tmp89,
	movq	%rcx, %rdi	# _2,
	call	_ZSt9call_onceIMSt6threadFvvEJPS0_EEvRSt9once_flagOT_DpOT0_	#
# /usr/include/c++/11.3.0/future:1700:     void _M_join() { std::call_once(_M_once, &thread::join, &_M_thread); }
	nop	
	movq	-8(%rbp), %rax	# D.192835, tmp91
	subq	%fs:40, %rax	# MEM[(<address-space-1> long unsigned int *)40B], tmp91
	je	.L156	#,
	call	__stack_chk_fail@PLT	#
.L156:
	leave	
	.cfi_def_cfa 7, 8
	ret	
	.cfi_endproc
.LFE4578:
	.size	_ZNSt13__future_base21_Async_state_commonV27_M_joinEv, .-_ZNSt13__future_base21_Async_state_commonV27_M_joinEv
	.local	_ZStL8__ioinit
	.comm	_ZStL8__ioinit,1,1
	.section	.text._ZNSt6threadC2Ev,"axG",@progbits,_ZNSt6threadC5Ev,comdat
	.align 2
	.weak	_ZNSt6threadC2Ev
	.type	_ZNSt6threadC2Ev, @function
_ZNSt6threadC2Ev:
.LFB5004:
	.cfi_startproc
	pushq	%rbp	#
	.cfi_def_cfa_offset 16
	.cfi_offset 6, -16
	movq	%rsp, %rbp	#,
	.cfi_def_cfa_register 6
	subq	$16, %rsp	#,
	movq	%rdi, -8(%rbp)	# this, this
# /usr/include/c++/11.3.0/bits/std_thread.h:121:     thread() noexcept = default;
	movq	-8(%rbp), %rax	# this, _1
	movq	%rax, %rdi	# _1,
	call	_ZNSt6thread2idC1Ev	#
	nop	
	leave	
	.cfi_def_cfa 7, 8
	ret	
	.cfi_endproc
.LFE5004:
	.size	_ZNSt6threadC2Ev, .-_ZNSt6threadC2Ev
	.weak	_ZNSt6threadC1Ev
	.set	_ZNSt6threadC1Ev,_ZNSt6threadC2Ev
	.section	.text._ZSt3minImERKT_S2_S2_,"axG",@progbits,_ZSt3minImERKT_S2_S2_,comdat
	.weak	_ZSt3minImERKT_S2_S2_
	.type	_ZSt3minImERKT_S2_S2_, @function
_ZSt3minImERKT_S2_S2_:
.LFB5330:
	.cfi_startproc
	pushq	%rbp	#
	.cfi_def_cfa_offset 16
	.cfi_offset 6, -16
	movq	%rsp, %rbp	#,
	.cfi_def_cfa_register 6
	movq	%rdi, -8(%rbp)	# __a, __a
	movq	%rsi, -16(%rbp)	# __b, __b
# /usr/include/c++/11.3.0/bits/stl_algobase.h:235:       if (__b < __a)
	movq	-16(%rbp), %rax	# __b, tmp86
	movq	(%rax), %rdx	# *__b_5(D), _1
	movq	-8(%rbp), %rax	# __a, tmp87
	movq	(%rax), %rax	# *__a_6(D), _2
# /usr/include/c++/11.3.0/bits/stl_algobase.h:235:       if (__b < __a)
	cmpq	%rax, %rdx	# _2, _1
	jnb	.L159	#,
# /usr/include/c++/11.3.0/bits/stl_algobase.h:236: 	return __b;
	movq	-16(%rbp), %rax	# __b, _3
	jmp	.L160	#
.L159:
# /usr/include/c++/11.3.0/bits/stl_algobase.h:237:       return __a;
	movq	-8(%rbp), %rax	# __a, _3
.L160:
# /usr/include/c++/11.3.0/bits/stl_algobase.h:238:     }
	popq	%rbp	#
	.cfi_def_cfa 7, 8
	ret	
	.cfi_endproc
.LFE5330:
	.size	_ZSt3minImERKT_S2_S2_, .-_ZSt3minImERKT_S2_S2_
	.section	.rodata
	.type	_ZN6__pstl9execution2v1L3seqE, @object
	.size	_ZN6__pstl9execution2v1L3seqE, 1
_ZN6__pstl9execution2v1L3seqE:
	.zero	1
	.type	_ZN6__pstl9execution2v1L3parE, @object
	.size	_ZN6__pstl9execution2v1L3parE, 1
_ZN6__pstl9execution2v1L3parE:
	.zero	1
	.type	_ZN6__pstl9execution2v1L9par_unseqE, @object
	.size	_ZN6__pstl9execution2v1L9par_unseqE, 1
_ZN6__pstl9execution2v1L9par_unseqE:
	.zero	1
	.type	_ZN6__pstl9execution2v1L5unseqE, @object
	.size	_ZN6__pstl9execution2v1L5unseqE, 1
_ZN6__pstl9execution2v1L5unseqE:
	.zero	1
	.text
	.globl	_Z14sequential_sumRKSt6vectorIiSaIiEEmm
	.type	_Z14sequential_sumRKSt6vectorIiSaIiEEmm, @function
_Z14sequential_sumRKSt6vectorIiSaIiEEmm:
.LFB5891:
	.cfi_startproc
	pushq	%rbp	#
	.cfi_def_cfa_offset 16
	.cfi_offset 6, -16
	movq	%rsp, %rbp	#,
	.cfi_def_cfa_register 6
	pushq	%r12	#
	pushq	%rbx	#
	subq	$64, %rsp	#,
	.cfi_offset 12, -24
	.cfi_offset 3, -32
	movq	%rdi, -56(%rbp)	# vec, vec
	movq	%rsi, -64(%rbp)	# lo, lo
	movq	%rdx, -72(%rbp)	# hi, hi
# /home/christoph/Code/Algorithms-DataStructures/HighPerformanceComputing/Concurrency/sequence_sum.cpp:10: {
	movq	%fs:40, %rax	# MEM[(<address-space-1> long unsigned int *)40B], tmp99
	movq	%rax, -24(%rbp)	# tmp99, D.192836
	xorl	%eax, %eax	# tmp99
# /home/christoph/Code/Algorithms-DataStructures/HighPerformanceComputing/Concurrency/sequence_sum.cpp:11:     const auto sum = std::accumulate(vec.begin()+lo, vec.begin()+hi, 0);
	movq	-72(%rbp), %rbx	# hi, hi.0_1
# /home/christoph/Code/Algorithms-DataStructures/HighPerformanceComputing/Concurrency/sequence_sum.cpp:11:     const auto sum = std::accumulate(vec.begin()+lo, vec.begin()+hi, 0);
	movq	-56(%rbp), %rax	# vec, tmp88
	movq	%rax, %rdi	# tmp88,
	call	_ZNKSt6vectorIiSaIiEE5beginEv	#
	movq	%rax, -32(%rbp)	# tmp90, D.146359
# /home/christoph/Code/Algorithms-DataStructures/HighPerformanceComputing/Concurrency/sequence_sum.cpp:11:     const auto sum = std::accumulate(vec.begin()+lo, vec.begin()+hi, 0);
	leaq	-32(%rbp), %rax	#, tmp91
	movq	%rbx, %rsi	# hi.0_1,
	movq	%rax, %rdi	# tmp91,
	call	_ZNK9__gnu_cxx17__normal_iteratorIPKiSt6vectorIiSaIiEEEplEl	#
	movq	%rax, %r12	#, D.190581
	movq	-64(%rbp), %rbx	# lo, lo.1_2
# /home/christoph/Code/Algorithms-DataStructures/HighPerformanceComputing/Concurrency/sequence_sum.cpp:11:     const auto sum = std::accumulate(vec.begin()+lo, vec.begin()+hi, 0);
	movq	-56(%rbp), %rax	# vec, tmp92
	movq	%rax, %rdi	# tmp92,
	call	_ZNKSt6vectorIiSaIiEE5beginEv	#
	movq	%rax, -40(%rbp)	# tmp94, D.146348
# /home/christoph/Code/Algorithms-DataStructures/HighPerformanceComputing/Concurrency/sequence_sum.cpp:11:     const auto sum = std::accumulate(vec.begin()+lo, vec.begin()+hi, 0);
	leaq	-40(%rbp), %rax	#, tmp95
	movq	%rbx, %rsi	# lo.1_2,
	movq	%rax, %rdi	# tmp95,
	call	_ZNK9__gnu_cxx17__normal_iteratorIPKiSt6vectorIiSaIiEEEplEl	#
	movl	$0, %edx	#,
	movq	%r12, %rsi	# D.190581,
	movq	%rax, %rdi	# D.190582,
	call	_ZSt10accumulateIN9__gnu_cxx17__normal_iteratorIPKiSt6vectorIiSaIiEEEEiET0_T_S9_S8_	#
	movl	%eax, -44(%rbp)	# tmp96, sum
# /home/christoph/Code/Algorithms-DataStructures/HighPerformanceComputing/Concurrency/sequence_sum.cpp:12:     return sum;
	movl	-44(%rbp), %eax	# sum, tmp97
	cltq
# /home/christoph/Code/Algorithms-DataStructures/HighPerformanceComputing/Concurrency/sequence_sum.cpp:13: }
	movq	-24(%rbp), %rdx	# D.192836, tmp100
	subq	%fs:40, %rdx	# MEM[(<address-space-1> long unsigned int *)40B], tmp100
	je	.L163	#,
	call	__stack_chk_fail@PLT	#
.L163:
	addq	$64, %rsp	#,
	popq	%rbx	#
	popq	%r12	#
	popq	%rbp	#
	.cfi_def_cfa 7, 8
	ret	
	.cfi_endproc
.LFE5891:
	.size	_Z14sequential_sumRKSt6vectorIiSaIiEEmm, .-_Z14sequential_sumRKSt6vectorIiSaIiEEmm
	.section	.text._ZNSt14__basic_futureIyED2Ev,"axG",@progbits,_ZNSt14__basic_futureIyED5Ev,comdat
	.align 2
	.weak	_ZNSt14__basic_futureIyED2Ev
	.type	_ZNSt14__basic_futureIyED2Ev, @function
_ZNSt14__basic_futureIyED2Ev:
.LFB5897:
	.cfi_startproc
	pushq	%rbp	#
	.cfi_def_cfa_offset 16
	.cfi_offset 6, -16
	movq	%rsp, %rbp	#,
	.cfi_def_cfa_register 6
	subq	$16, %rsp	#,
	movq	%rdi, -8(%rbp)	# this, this
# /usr/include/c++/11.3.0/future:673:     class __basic_future : public __future_base
	movq	-8(%rbp), %rax	# this, _1
	movq	%rax, %rdi	# _1,
	call	_ZNSt10shared_ptrINSt13__future_base13_State_baseV2EED1Ev	#
	nop	
	leave	
	.cfi_def_cfa 7, 8
	ret	
	.cfi_endproc
.LFE5897:
	.size	_ZNSt14__basic_futureIyED2Ev, .-_ZNSt14__basic_futureIyED2Ev
	.weak	_ZNSt14__basic_futureIyED1Ev
	.set	_ZNSt14__basic_futureIyED1Ev,_ZNSt14__basic_futureIyED2Ev
	.section	.text._ZNSt6futureIyED2Ev,"axG",@progbits,_ZNSt6futureIyED5Ev,comdat
	.align 2
	.weak	_ZNSt6futureIyED2Ev
	.type	_ZNSt6futureIyED2Ev, @function
_ZNSt6futureIyED2Ev:
.LFB5899:
	.cfi_startproc
	pushq	%rbp	#
	.cfi_def_cfa_offset 16
	.cfi_offset 6, -16
	movq	%rsp, %rbp	#,
	.cfi_def_cfa_register 6
	subq	$16, %rsp	#,
	movq	%rdi, -8(%rbp)	# this, this
# /usr/include/c++/11.3.0/future:763:     class future : public __basic_future<_Res>
	movq	-8(%rbp), %rax	# this, _1
	movq	%rax, %rdi	# _1,
	call	_ZNSt14__basic_futureIyED2Ev	#
	nop	
	leave	
	.cfi_def_cfa 7, 8
	ret	
	.cfi_endproc
.LFE5899:
	.size	_ZNSt6futureIyED2Ev, .-_ZNSt6futureIyED2Ev
	.weak	_ZNSt6futureIyED1Ev
	.set	_ZNSt6futureIyED1Ev,_ZNSt6futureIyED2Ev
	.text
	.globl	_Z12parallel_sumRKSt6vectorIiSaIiEEmmm
	.type	_Z12parallel_sumRKSt6vectorIiSaIiEEmmm, @function
_Z12parallel_sumRKSt6vectorIiSaIiEEmmm:
.LFB5892:
	.cfi_startproc
	.cfi_personality 0x9b,DW.ref.__gxx_personality_v0
	.cfi_lsda 0x1b,.LLSDA5892
	pushq	%rbp	#
	.cfi_def_cfa_offset 16
	.cfi_offset 6, -16
	movq	%rsp, %rbp	#,
	.cfi_def_cfa_register 6
	pushq	%rbx	#
	subq	$104, %rsp	#,
	.cfi_offset 3, -24
	movq	%rdi, -88(%rbp)	# vec, vec
	movq	%rsi, -96(%rbp)	# lo, lo
	movq	%rdx, -104(%rbp)	# hi, hi
	movq	%rcx, -112(%rbp)	# depth, depth
# /home/christoph/Code/Algorithms-DataStructures/HighPerformanceComputing/Concurrency/sequence_sum.cpp:16: {
	movq	%fs:40, %rax	# MEM[(<address-space-1> long unsigned int *)40B], tmp120
	movq	%rax, -24(%rbp)	# tmp120, D.192838
	xorl	%eax, %eax	# tmp120
# /home/christoph/Code/Algorithms-DataStructures/HighPerformanceComputing/Concurrency/sequence_sum.cpp:17:     unsigned long long sum = 0;
	movq	$0, -64(%rbp)	#, sum
# /home/christoph/Code/Algorithms-DataStructures/HighPerformanceComputing/Concurrency/sequence_sum.cpp:19:     if (depth > 4 || (hi-lo) <= 4) // conquer
	cmpq	$4, -112(%rbp)	#, depth
	ja	.L167	#,
# /home/christoph/Code/Algorithms-DataStructures/HighPerformanceComputing/Concurrency/sequence_sum.cpp:19:     if (depth > 4 || (hi-lo) <= 4) // conquer
	movq	-96(%rbp), %rdx	# lo, lo.4_1
	movq	-104(%rbp), %rax	# hi, tmp97
	subq	%rdx, %rax	# lo.4_1, _2
# /home/christoph/Code/Algorithms-DataStructures/HighPerformanceComputing/Concurrency/sequence_sum.cpp:19:     if (depth > 4 || (hi-lo) <= 4) // conquer
	cmpq	$4, %rax	#, _2
	ja	.L168	#,
.L167:
# /home/christoph/Code/Algorithms-DataStructures/HighPerformanceComputing/Concurrency/sequence_sum.cpp:21:         sum = sequential_sum(vec, lo, hi);
	movq	-96(%rbp), %rcx	# lo, lo.5_3
	movq	-104(%rbp), %rdx	# hi, tmp98
	movq	-88(%rbp), %rax	# vec, tmp99
	movq	%rcx, %rsi	# lo.5_3,
	movq	%rax, %rdi	# tmp99,
	call	_Z14sequential_sumRKSt6vectorIiSaIiEEmm	#
	movq	%rax, -64(%rbp)	# _38, sum
# /home/christoph/Code/Algorithms-DataStructures/HighPerformanceComputing/Concurrency/sequence_sum.cpp:21:         sum = sequential_sum(vec, lo, hi);
	jmp	.L169	#
.L168:
# /home/christoph/Code/Algorithms-DataStructures/HighPerformanceComputing/Concurrency/sequence_sum.cpp:25:         const size_t mid = (hi-lo)/2;
	movq	-96(%rbp), %rdx	# lo, lo.6_4
	movq	-104(%rbp), %rax	# hi, tmp100
	subq	%rdx, %rax	# lo.6_4, _5
# /home/christoph/Code/Algorithms-DataStructures/HighPerformanceComputing/Concurrency/sequence_sum.cpp:25:         const size_t mid = (hi-lo)/2;
	shrq	%rax	# _6
# /home/christoph/Code/Algorithms-DataStructures/HighPerformanceComputing/Concurrency/sequence_sum.cpp:25:         const size_t mid = (hi-lo)/2;
	movq	%rax, -80(%rbp)	# _6, mid
# /home/christoph/Code/Algorithms-DataStructures/HighPerformanceComputing/Concurrency/sequence_sum.cpp:26:         std::future<unsigned long long> left_sum = std::async(std::launch::async, parallel_sum, vec, lo, mid, depth+1);
	movq	-112(%rbp), %rax	# depth, tmp101
	addq	$1, %rax	#, _7
	movq	%rax, -72(%rbp)	# _7, D.147069
# /home/christoph/Code/Algorithms-DataStructures/HighPerformanceComputing/Concurrency/sequence_sum.cpp:26:         std::future<unsigned long long> left_sum = std::async(std::launch::async, parallel_sum, vec, lo, mid, depth+1);
	leaq	-48(%rbp), %rax	#, tmp102
	leaq	-80(%rbp), %rdi	#, tmp103
	leaq	-96(%rbp), %rsi	#, tmp104
	movq	-88(%rbp), %rdx	# vec, tmp105
	subq	$8, %rsp	#,
	leaq	-72(%rbp), %rcx	#, tmp106
	pushq	%rcx	# tmp106
	movq	%rdi, %r9	# tmp103,
	movq	%rsi, %r8	# tmp104,
	movq	%rdx, %rcx	# tmp105,
	leaq	_Z12parallel_sumRKSt6vectorIiSaIiEEmmm(%rip), %rdx	#, tmp107
	movl	$1, %esi	#,
	movq	%rax, %rdi	# tmp102,
.LEHB4:
	call	_ZSt5asyncIRFyRKSt6vectorIiSaIiEEmmmEJS4_RmRKmmEESt6futureINSt15__invoke_resultINSt5decayIT_E4typeEJDpNSC_IT0_E4typeEEE4typeEESt6launchOSD_DpOSG_	#
.LEHE4:
	addq	$16, %rsp	#,
# /home/christoph/Code/Algorithms-DataStructures/HighPerformanceComputing/Concurrency/sequence_sum.cpp:27:         const unsigned long long right_sum = parallel_sum(vec, mid, hi, depth+1);
	movq	-112(%rbp), %rax	# depth, tmp108
	leaq	1(%rax), %rcx	#, _8
	movq	-80(%rbp), %rsi	# mid, mid.7_9
	movq	-104(%rbp), %rdx	# hi, tmp109
	movq	-88(%rbp), %rax	# vec, tmp110
	movq	%rax, %rdi	# tmp110,
.LEHB5:
	call	_Z12parallel_sumRKSt6vectorIiSaIiEEmmm	#
	movq	%rax, -56(%rbp)	# _25, right_sum
# /home/christoph/Code/Algorithms-DataStructures/HighPerformanceComputing/Concurrency/sequence_sum.cpp:28:         sum = left_sum.get() + right_sum;
	leaq	-48(%rbp), %rax	#, tmp111
	movq	%rax, %rdi	# tmp111,
	call	_ZNSt6futureIyE3getEv	#
.LEHE5:
# /home/christoph/Code/Algorithms-DataStructures/HighPerformanceComputing/Concurrency/sequence_sum.cpp:28:         sum = left_sum.get() + right_sum;
	movq	-56(%rbp), %rdx	# right_sum, tmp115
	addq	%rdx, %rax	# tmp115, tmp114
	movq	%rax, -64(%rbp)	# tmp114, sum
# /home/christoph/Code/Algorithms-DataStructures/HighPerformanceComputing/Concurrency/sequence_sum.cpp:29:     }
	leaq	-48(%rbp), %rax	#, tmp116
	movq	%rax, %rdi	# tmp116,
	call	_ZNSt6futureIyED1Ev	#
.L169:
# /home/christoph/Code/Algorithms-DataStructures/HighPerformanceComputing/Concurrency/sequence_sum.cpp:31:     return sum;
	movq	-64(%rbp), %rax	# sum, _40
# /home/christoph/Code/Algorithms-DataStructures/HighPerformanceComputing/Concurrency/sequence_sum.cpp:32: }
	movq	-24(%rbp), %rdx	# D.192838, tmp121
	subq	%fs:40, %rdx	# MEM[(<address-space-1> long unsigned int *)40B], tmp121
	je	.L172	#,
	jmp	.L174	#
.L173:
# /home/christoph/Code/Algorithms-DataStructures/HighPerformanceComputing/Concurrency/sequence_sum.cpp:29:     }
	movq	%rax, %rbx	#, tmp119
	leaq	-48(%rbp), %rax	#, tmp118
	movq	%rax, %rdi	# tmp118,
	call	_ZNSt6futureIyED1Ev	#
	movq	%rbx, %rax	# tmp119, D.192837
	movq	%rax, %rdi	# D.192837,
.LEHB6:
	call	_Unwind_Resume@PLT	#
.LEHE6:
.L174:
# /home/christoph/Code/Algorithms-DataStructures/HighPerformanceComputing/Concurrency/sequence_sum.cpp:32: }
	call	__stack_chk_fail@PLT	#
.L172:
	movq	-8(%rbp), %rbx	#,
	leave	
	.cfi_def_cfa 7, 8
	ret	
	.cfi_endproc
.LFE5892:
	.section	.gcc_except_table,"a",@progbits
.LLSDA5892:
	.byte	0xff
	.byte	0xff
	.byte	0x1
	.uleb128 .LLSDACSE5892-.LLSDACSB5892
.LLSDACSB5892:
	.uleb128 .LEHB4-.LFB5892
	.uleb128 .LEHE4-.LEHB4
	.uleb128 0
	.uleb128 0
	.uleb128 .LEHB5-.LFB5892
	.uleb128 .LEHE5-.LEHB5
	.uleb128 .L173-.LFB5892
	.uleb128 0
	.uleb128 .LEHB6-.LFB5892
	.uleb128 .LEHE6-.LEHB6
	.uleb128 0
	.uleb128 0
.LLSDACSE5892:
	.text
	.size	_Z12parallel_sumRKSt6vectorIiSaIiEEmmm, .-_Z12parallel_sumRKSt6vectorIiSaIiEEmmm
	.section	.text._ZNSt12_Vector_baseIiSaIiEE12_Vector_implD2Ev,"axG",@progbits,_ZNSt12_Vector_baseIiSaIiEE12_Vector_implD5Ev,comdat
	.align 2
	.weak	_ZNSt12_Vector_baseIiSaIiEE12_Vector_implD2Ev
	.type	_ZNSt12_Vector_baseIiSaIiEE12_Vector_implD2Ev, @function
_ZNSt12_Vector_baseIiSaIiEE12_Vector_implD2Ev:
.LFB5906:
	.cfi_startproc
	pushq	%rbp	#
	.cfi_def_cfa_offset 16
	.cfi_offset 6, -16
	movq	%rsp, %rbp	#,
	.cfi_def_cfa_register 6
	subq	$16, %rsp	#,
	movq	%rdi, -8(%rbp)	# this, this
# /usr/include/c++/11.3.0/bits/stl_vector.h:128:       struct _Vector_impl
	movq	-8(%rbp), %rax	# this, tmp82
	movq	%rax, %rdi	# tmp82,
	call	_ZNSaIiED2Ev	#
	nop	
	leave	
	.cfi_def_cfa 7, 8
	ret	
	.cfi_endproc
.LFE5906:
	.size	_ZNSt12_Vector_baseIiSaIiEE12_Vector_implD2Ev, .-_ZNSt12_Vector_baseIiSaIiEE12_Vector_implD2Ev
	.weak	_ZNSt12_Vector_baseIiSaIiEE12_Vector_implD1Ev
	.set	_ZNSt12_Vector_baseIiSaIiEE12_Vector_implD1Ev,_ZNSt12_Vector_baseIiSaIiEE12_Vector_implD2Ev
	.section	.text._ZNSt12_Vector_baseIiSaIiEEC2Ev,"axG",@progbits,_ZNSt12_Vector_baseIiSaIiEEC5Ev,comdat
	.align 2
	.weak	_ZNSt12_Vector_baseIiSaIiEEC2Ev
	.type	_ZNSt12_Vector_baseIiSaIiEEC2Ev, @function
_ZNSt12_Vector_baseIiSaIiEEC2Ev:
.LFB5908:
	.cfi_startproc
	pushq	%rbp	#
	.cfi_def_cfa_offset 16
	.cfi_offset 6, -16
	movq	%rsp, %rbp	#,
	.cfi_def_cfa_register 6
	subq	$16, %rsp	#,
	movq	%rdi, -8(%rbp)	# this, this
# /usr/include/c++/11.3.0/bits/stl_vector.h:288:       _Vector_base() = default;
	movq	-8(%rbp), %rax	# this, _1
	movq	%rax, %rdi	# _1,
	call	_ZNSt12_Vector_baseIiSaIiEE12_Vector_implC1Ev	#
	nop	
	leave	
	.cfi_def_cfa 7, 8
	ret	
	.cfi_endproc
.LFE5908:
	.size	_ZNSt12_Vector_baseIiSaIiEEC2Ev, .-_ZNSt12_Vector_baseIiSaIiEEC2Ev
	.weak	_ZNSt12_Vector_baseIiSaIiEEC1Ev
	.set	_ZNSt12_Vector_baseIiSaIiEEC1Ev,_ZNSt12_Vector_baseIiSaIiEEC2Ev
	.section	.text._ZNSt6vectorIiSaIiEEC2Ev,"axG",@progbits,_ZNSt6vectorIiSaIiEEC5Ev,comdat
	.align 2
	.weak	_ZNSt6vectorIiSaIiEEC2Ev
	.type	_ZNSt6vectorIiSaIiEEC2Ev, @function
_ZNSt6vectorIiSaIiEEC2Ev:
.LFB5910:
	.cfi_startproc
	pushq	%rbp	#
	.cfi_def_cfa_offset 16
	.cfi_offset 6, -16
	movq	%rsp, %rbp	#,
	.cfi_def_cfa_register 6
	subq	$16, %rsp	#,
	movq	%rdi, -8(%rbp)	# this, this
# /usr/include/c++/11.3.0/bits/stl_vector.h:487:       vector() = default;
	movq	-8(%rbp), %rax	# this, _1
	movq	%rax, %rdi	# _1,
	call	_ZNSt12_Vector_baseIiSaIiEEC2Ev	#
	nop	
	leave	
	.cfi_def_cfa 7, 8
	ret	
	.cfi_endproc
.LFE5910:
	.size	_ZNSt6vectorIiSaIiEEC2Ev, .-_ZNSt6vectorIiSaIiEEC2Ev
	.weak	_ZNSt6vectorIiSaIiEEC1Ev
	.set	_ZNSt6vectorIiSaIiEEC1Ev,_ZNSt6vectorIiSaIiEEC2Ev
	.section	.rodata
	.align 8
.LC1:
	.string	"Generating 100 000 random numbers"
	.align 8
.LC2:
	.string	"100 000 random numbers generated"
.LC3:
	.string	"Parallel sum: "
.LC4:
	.string	"\nParallel runtime: "
.LC5:
	.string	"ms"
.LC6:
	.string	"Sequential sum: "
.LC7:
	.string	"\nSequential runtime: "
	.text
	.globl	main
	.type	main, @function
main:
.LFB5901:
	.cfi_startproc
	.cfi_personality 0x9b,DW.ref.__gxx_personality_v0
	.cfi_lsda 0x1b,.LLSDA5901
	pushq	%rbp	#
	.cfi_def_cfa_offset 16
	.cfi_offset 6, -16
	movq	%rsp, %rbp	#,
	.cfi_def_cfa_register 6
	pushq	%rbx	#
	subq	$120, %rsp	#,
	.cfi_offset 3, -24
# /home/christoph/Code/Algorithms-DataStructures/HighPerformanceComputing/Concurrency/sequence_sum.cpp:35: {
	movq	%fs:40, %rax	# MEM[(<address-space-1> long unsigned int *)40B], tmp168
	movq	%rax, -24(%rbp)	# tmp168, D.192842
	xorl	%eax, %eax	# tmp168
# /home/christoph/Code/Algorithms-DataStructures/HighPerformanceComputing/Concurrency/sequence_sum.cpp:36:     std::vector<int> vec;
	leaq	-48(%rbp), %rax	#, tmp105
	movq	%rax, %rdi	# tmp105,
	call	_ZNSt6vectorIiSaIiEEC1Ev	#
# /home/christoph/Code/Algorithms-DataStructures/HighPerformanceComputing/Concurrency/sequence_sum.cpp:37:     std::cout << "Generating 100 000 random numbers" << std::endl;
	leaq	.LC1(%rip), %rax	#, tmp106
	movq	%rax, %rsi	# tmp106,
	leaq	_ZSt4cout(%rip), %rax	#, tmp107
	movq	%rax, %rdi	# tmp107,
.LEHB7:
	call	_ZStlsISt11char_traitsIcEERSt13basic_ostreamIcT_ES5_PKc@PLT	#
# /home/christoph/Code/Algorithms-DataStructures/HighPerformanceComputing/Concurrency/sequence_sum.cpp:37:     std::cout << "Generating 100 000 random numbers" << std::endl;
	movq	_ZSt4endlIcSt11char_traitsIcEERSt13basic_ostreamIT_T0_ES6_@GOTPCREL(%rip), %rdx	#, tmp109
	movq	%rdx, %rsi	# tmp108,
	movq	%rax, %rdi	# _1,
	call	_ZNSolsEPFRSoS_E@PLT	#
# /home/christoph/Code/Algorithms-DataStructures/HighPerformanceComputing/Concurrency/sequence_sum.cpp:38:     for(size_t i = 0; i < 100; ++i)
	movq	$0, -72(%rbp)	#, i
# /home/christoph/Code/Algorithms-DataStructures/HighPerformanceComputing/Concurrency/sequence_sum.cpp:38:     for(size_t i = 0; i < 100; ++i)
	jmp	.L179	#
.L180:
# /home/christoph/Code/Algorithms-DataStructures/HighPerformanceComputing/Concurrency/sequence_sum.cpp:40:         vec.push_back(rand()%100);
	call	rand@PLT	#
# /home/christoph/Code/Algorithms-DataStructures/HighPerformanceComputing/Concurrency/sequence_sum.cpp:40:         vec.push_back(rand()%100);
	movslq	%eax, %rdx	# _2, tmp110
	imulq	$1374389535, %rdx, %rdx	#, tmp110, tmp111
	shrq	$32, %rdx	#, tmp112
	sarl	$5, %edx	#, tmp113
	movl	%eax, %ecx	# _2, tmp114
	sarl	$31, %ecx	#, tmp114
	subl	%ecx, %edx	# tmp114, _3
	imull	$100, %edx, %ecx	#, _3, tmp115
	subl	%ecx, %eax	# tmp115, _2
	movl	%eax, %edx	# _2, _3
	movl	%edx, -80(%rbp)	# _3, MEM[(int *)_97]
# /home/christoph/Code/Algorithms-DataStructures/HighPerformanceComputing/Concurrency/sequence_sum.cpp:40:         vec.push_back(rand()%100);
	leaq	-80(%rbp), %rdx	#, tmp116
	leaq	-48(%rbp), %rax	#, tmp117
	movq	%rdx, %rsi	# tmp116,
	movq	%rax, %rdi	# tmp117,
	call	_ZNSt6vectorIiSaIiEE9push_backEOi	#
# /home/christoph/Code/Algorithms-DataStructures/HighPerformanceComputing/Concurrency/sequence_sum.cpp:38:     for(size_t i = 0; i < 100; ++i)
	addq	$1, -72(%rbp)	#, i
.L179:
# /home/christoph/Code/Algorithms-DataStructures/HighPerformanceComputing/Concurrency/sequence_sum.cpp:38:     for(size_t i = 0; i < 100; ++i)
	cmpq	$99, -72(%rbp)	#, i
	jbe	.L180	#,
# /home/christoph/Code/Algorithms-DataStructures/HighPerformanceComputing/Concurrency/sequence_sum.cpp:42:     std::cout << "100 000 random numbers generated" << std::endl;
	leaq	.LC2(%rip), %rax	#, tmp118
	movq	%rax, %rsi	# tmp118,
	leaq	_ZSt4cout(%rip), %rax	#, tmp119
	movq	%rax, %rdi	# tmp119,
	call	_ZStlsISt11char_traitsIcEERSt13basic_ostreamIcT_ES5_PKc@PLT	#
# /home/christoph/Code/Algorithms-DataStructures/HighPerformanceComputing/Concurrency/sequence_sum.cpp:42:     std::cout << "100 000 random numbers generated" << std::endl;
	movq	_ZSt4endlIcSt11char_traitsIcEERSt13basic_ostreamIT_T0_ES6_@GOTPCREL(%rip), %rdx	#, tmp121
	movq	%rdx, %rsi	# tmp120,
	movq	%rax, %rdi	# _4,
	call	_ZNSolsEPFRSoS_E@PLT	#
# /home/christoph/Code/Algorithms-DataStructures/HighPerformanceComputing/Concurrency/sequence_sum.cpp:44:     const auto start_time_parallel = std::chrono::steady_clock::now();
	call	_ZNSt6chrono3_V212steady_clock3nowEv@PLT	#
	movq	%rax, -120(%rbp)	# tmp123, start_time_parallel
# /home/christoph/Code/Algorithms-DataStructures/HighPerformanceComputing/Concurrency/sequence_sum.cpp:45:     const auto sum_parallel = parallel_sum(vec, 0, vec.size(), 0);
	leaq	-48(%rbp), %rax	#, tmp124
	movq	%rax, %rdi	# tmp124,
	call	_ZNKSt6vectorIiSaIiEE4sizeEv	#
	movq	%rax, %rdx	#, _5
	leaq	-48(%rbp), %rax	#, tmp125
	movl	$0, %ecx	#,
	movl	$0, %esi	#,
	movq	%rax, %rdi	# tmp125,
	call	_Z12parallel_sumRKSt6vectorIiSaIiEEmmm	#
	movq	%rax, -64(%rbp)	# _38, sum_parallel
# /home/christoph/Code/Algorithms-DataStructures/HighPerformanceComputing/Concurrency/sequence_sum.cpp:46:     const auto end_time_parallel = std::chrono::steady_clock::now();
	call	_ZNSt6chrono3_V212steady_clock3nowEv@PLT	#
	movq	%rax, -112(%rbp)	# tmp127, end_time_parallel
# /home/christoph/Code/Algorithms-DataStructures/HighPerformanceComputing/Concurrency/sequence_sum.cpp:47:     std::cout << "Parallel sum: " << sum_parallel
	leaq	.LC3(%rip), %rax	#, tmp128
	movq	%rax, %rsi	# tmp128,
	leaq	_ZSt4cout(%rip), %rax	#, tmp129
	movq	%rax, %rdi	# tmp129,
	call	_ZStlsISt11char_traitsIcEERSt13basic_ostreamIcT_ES5_PKc@PLT	#
# /home/christoph/Code/Algorithms-DataStructures/HighPerformanceComputing/Concurrency/sequence_sum.cpp:47:     std::cout << "Parallel sum: " << sum_parallel
	movq	%rax, %rdx	#, _6
# /home/christoph/Code/Algorithms-DataStructures/HighPerformanceComputing/Concurrency/sequence_sum.cpp:47:     std::cout << "Parallel sum: " << sum_parallel
	movq	-64(%rbp), %rax	# sum_parallel, tmp130
	movq	%rax, %rsi	# tmp130,
	movq	%rdx, %rdi	# _6,
	call	_ZNSolsEy@PLT	#
	movq	%rax, %rdx	#, _7
# /home/christoph/Code/Algorithms-DataStructures/HighPerformanceComputing/Concurrency/sequence_sum.cpp:48:     << "\nParallel runtime: " << std::chrono::duration_cast<std::chrono::milliseconds>(end_time_parallel-start_time_parallel).count() << "ms"
	leaq	.LC4(%rip), %rax	#, tmp131
	movq	%rax, %rsi	# tmp131,
	movq	%rdx, %rdi	# _7,
	call	_ZStlsISt11char_traitsIcEERSt13basic_ostreamIcT_ES5_PKc@PLT	#
# /home/christoph/Code/Algorithms-DataStructures/HighPerformanceComputing/Concurrency/sequence_sum.cpp:48:     << "\nParallel runtime: " << std::chrono::duration_cast<std::chrono::milliseconds>(end_time_parallel-start_time_parallel).count() << "ms"
	movq	%rax, %rbx	#, _8
# /home/christoph/Code/Algorithms-DataStructures/HighPerformanceComputing/Concurrency/sequence_sum.cpp:48:     << "\nParallel runtime: " << std::chrono::duration_cast<std::chrono::milliseconds>(end_time_parallel-start_time_parallel).count() << "ms"
	leaq	-120(%rbp), %rdx	#, tmp132
	leaq	-112(%rbp), %rax	#, tmp133
	movq	%rdx, %rsi	# tmp132,
	movq	%rax, %rdi	# tmp133,
	call	_ZNSt6chronomiINS_3_V212steady_clockENS_8durationIlSt5ratioILl1ELl1000000000EEEES6_EENSt11common_typeIJT0_T1_EE4typeERKNS_10time_pointIT_S8_EERKNSC_ISD_S9_EE	#
# /home/christoph/Code/Algorithms-DataStructures/HighPerformanceComputing/Concurrency/sequence_sum.cpp:48:     << "\nParallel runtime: " << std::chrono::duration_cast<std::chrono::milliseconds>(end_time_parallel-start_time_parallel).count() << "ms"
	movq	%rax, -88(%rbp)	# tmp135, MEM[(struct duration *)_24]
# /home/christoph/Code/Algorithms-DataStructures/HighPerformanceComputing/Concurrency/sequence_sum.cpp:48:     << "\nParallel runtime: " << std::chrono::duration_cast<std::chrono::milliseconds>(end_time_parallel-start_time_parallel).count() << "ms"
	leaq	-88(%rbp), %rax	#, tmp136
	movq	%rax, %rdi	# tmp136,
	call	_ZNSt6chrono13duration_castINS_8durationIlSt5ratioILl1ELl1000EEEElS2_ILl1ELl1000000000EEEENSt9enable_ifIXsrNS_13__is_durationIT_EE5valueES8_E4typeERKNS1_IT0_T1_EE	#
# /home/christoph/Code/Algorithms-DataStructures/HighPerformanceComputing/Concurrency/sequence_sum.cpp:48:     << "\nParallel runtime: " << std::chrono::duration_cast<std::chrono::milliseconds>(end_time_parallel-start_time_parallel).count() << "ms"
	movq	%rax, -80(%rbp)	# tmp138, MEM[(struct duration *)_97]
# /home/christoph/Code/Algorithms-DataStructures/HighPerformanceComputing/Concurrency/sequence_sum.cpp:48:     << "\nParallel runtime: " << std::chrono::duration_cast<std::chrono::milliseconds>(end_time_parallel-start_time_parallel).count() << "ms"
	leaq	-80(%rbp), %rax	#, tmp139
	movq	%rax, %rdi	# tmp139,
	call	_ZNKSt6chrono8durationIlSt5ratioILl1ELl1000EEE5countEv	#
	movq	%rax, %rsi	# _9,
	movq	%rbx, %rdi	# _8,
	call	_ZNSolsEl@PLT	#
# /home/christoph/Code/Algorithms-DataStructures/HighPerformanceComputing/Concurrency/sequence_sum.cpp:48:     << "\nParallel runtime: " << std::chrono::duration_cast<std::chrono::milliseconds>(end_time_parallel-start_time_parallel).count() << "ms"
	movq	%rax, %rdx	#, _10
# /home/christoph/Code/Algorithms-DataStructures/HighPerformanceComputing/Concurrency/sequence_sum.cpp:48:     << "\nParallel runtime: " << std::chrono::duration_cast<std::chrono::milliseconds>(end_time_parallel-start_time_parallel).count() << "ms"
	leaq	.LC5(%rip), %rax	#, tmp140
	movq	%rax, %rsi	# tmp140,
	movq	%rdx, %rdi	# _10,
	call	_ZStlsISt11char_traitsIcEERSt13basic_ostreamIcT_ES5_PKc@PLT	#
# /home/christoph/Code/Algorithms-DataStructures/HighPerformanceComputing/Concurrency/sequence_sum.cpp:49:     << std::endl;
	movq	_ZSt4endlIcSt11char_traitsIcEERSt13basic_ostreamIT_T0_ES6_@GOTPCREL(%rip), %rdx	#, tmp142
	movq	%rdx, %rsi	# tmp141,
	movq	%rax, %rdi	# _11,
	call	_ZNSolsEPFRSoS_E@PLT	#
# /home/christoph/Code/Algorithms-DataStructures/HighPerformanceComputing/Concurrency/sequence_sum.cpp:51:     const auto start_time_sequential = std::chrono::steady_clock::now();
	call	_ZNSt6chrono3_V212steady_clock3nowEv@PLT	#
	movq	%rax, -104(%rbp)	# tmp144, start_time_sequential
# /home/christoph/Code/Algorithms-DataStructures/HighPerformanceComputing/Concurrency/sequence_sum.cpp:52:     const auto sum_sequential = sequential_sum(vec, 0, vec.size());
	leaq	-48(%rbp), %rax	#, tmp145
	movq	%rax, %rdi	# tmp145,
	call	_ZNKSt6vectorIiSaIiEE4sizeEv	#
	movq	%rax, %rdx	#, _12
	leaq	-48(%rbp), %rax	#, tmp146
	movl	$0, %esi	#,
	movq	%rax, %rdi	# tmp146,
	call	_Z14sequential_sumRKSt6vectorIiSaIiEEmm	#
	movq	%rax, -56(%rbp)	# _60, sum_sequential
# /home/christoph/Code/Algorithms-DataStructures/HighPerformanceComputing/Concurrency/sequence_sum.cpp:53:     const auto end_time_sequential = std::chrono::steady_clock::now();
	call	_ZNSt6chrono3_V212steady_clock3nowEv@PLT	#
	movq	%rax, -96(%rbp)	# tmp148, end_time_sequential
# /home/christoph/Code/Algorithms-DataStructures/HighPerformanceComputing/Concurrency/sequence_sum.cpp:54:     std::cout << "Sequential sum: " << sum_sequential
	leaq	.LC6(%rip), %rax	#, tmp149
	movq	%rax, %rsi	# tmp149,
	leaq	_ZSt4cout(%rip), %rax	#, tmp150
	movq	%rax, %rdi	# tmp150,
	call	_ZStlsISt11char_traitsIcEERSt13basic_ostreamIcT_ES5_PKc@PLT	#
	movq	%rax, %rdx	#, _13
# /home/christoph/Code/Algorithms-DataStructures/HighPerformanceComputing/Concurrency/sequence_sum.cpp:54:     std::cout << "Sequential sum: " << sum_sequential
	movq	-56(%rbp), %rax	# sum_sequential, tmp151
	movq	%rax, %rsi	# tmp151,
	movq	%rdx, %rdi	# _13,
	call	_ZNSolsEy@PLT	#
# /home/christoph/Code/Algorithms-DataStructures/HighPerformanceComputing/Concurrency/sequence_sum.cpp:54:     std::cout << "Sequential sum: " << sum_sequential
	movq	%rax, %rdx	#, _14
# /home/christoph/Code/Algorithms-DataStructures/HighPerformanceComputing/Concurrency/sequence_sum.cpp:55:     << "\nSequential runtime: " << std::chrono::duration_cast<std::chrono::milliseconds>(end_time_sequential-start_time_sequential).count() << "ms"
	leaq	.LC7(%rip), %rax	#, tmp152
	movq	%rax, %rsi	# tmp152,
	movq	%rdx, %rdi	# _14,
	call	_ZStlsISt11char_traitsIcEERSt13basic_ostreamIcT_ES5_PKc@PLT	#
# /home/christoph/Code/Algorithms-DataStructures/HighPerformanceComputing/Concurrency/sequence_sum.cpp:55:     << "\nSequential runtime: " << std::chrono::duration_cast<std::chrono::milliseconds>(end_time_sequential-start_time_sequential).count() << "ms"
	movq	%rax, %rbx	#, _15
# /home/christoph/Code/Algorithms-DataStructures/HighPerformanceComputing/Concurrency/sequence_sum.cpp:55:     << "\nSequential runtime: " << std::chrono::duration_cast<std::chrono::milliseconds>(end_time_sequential-start_time_sequential).count() << "ms"
	leaq	-104(%rbp), %rdx	#, tmp153
	leaq	-96(%rbp), %rax	#, tmp154
	movq	%rdx, %rsi	# tmp153,
	movq	%rax, %rdi	# tmp154,
	call	_ZNSt6chronomiINS_3_V212steady_clockENS_8durationIlSt5ratioILl1ELl1000000000EEEES6_EENSt11common_typeIJT0_T1_EE4typeERKNS_10time_pointIT_S8_EERKNSC_ISD_S9_EE	#
# /home/christoph/Code/Algorithms-DataStructures/HighPerformanceComputing/Concurrency/sequence_sum.cpp:55:     << "\nSequential runtime: " << std::chrono::duration_cast<std::chrono::milliseconds>(end_time_sequential-start_time_sequential).count() << "ms"
	movq	%rax, -88(%rbp)	# tmp156, MEM[(struct duration *)_24]
# /home/christoph/Code/Algorithms-DataStructures/HighPerformanceComputing/Concurrency/sequence_sum.cpp:55:     << "\nSequential runtime: " << std::chrono::duration_cast<std::chrono::milliseconds>(end_time_sequential-start_time_sequential).count() << "ms"
	leaq	-88(%rbp), %rax	#, tmp157
	movq	%rax, %rdi	# tmp157,
	call	_ZNSt6chrono13duration_castINS_8durationIlSt5ratioILl1ELl1000EEEElS2_ILl1ELl1000000000EEEENSt9enable_ifIXsrNS_13__is_durationIT_EE5valueES8_E4typeERKNS1_IT0_T1_EE	#
# /home/christoph/Code/Algorithms-DataStructures/HighPerformanceComputing/Concurrency/sequence_sum.cpp:55:     << "\nSequential runtime: " << std::chrono::duration_cast<std::chrono::milliseconds>(end_time_sequential-start_time_sequential).count() << "ms"
	movq	%rax, -80(%rbp)	# tmp159, MEM[(struct duration *)_97]
# /home/christoph/Code/Algorithms-DataStructures/HighPerformanceComputing/Concurrency/sequence_sum.cpp:55:     << "\nSequential runtime: " << std::chrono::duration_cast<std::chrono::milliseconds>(end_time_sequential-start_time_sequential).count() << "ms"
	leaq	-80(%rbp), %rax	#, tmp160
	movq	%rax, %rdi	# tmp160,
	call	_ZNKSt6chrono8durationIlSt5ratioILl1ELl1000EEE5countEv	#
	movq	%rax, %rsi	# _16,
	movq	%rbx, %rdi	# _15,
	call	_ZNSolsEl@PLT	#
# /home/christoph/Code/Algorithms-DataStructures/HighPerformanceComputing/Concurrency/sequence_sum.cpp:55:     << "\nSequential runtime: " << std::chrono::duration_cast<std::chrono::milliseconds>(end_time_sequential-start_time_sequential).count() << "ms"
	movq	%rax, %rdx	#, _17
# /home/christoph/Code/Algorithms-DataStructures/HighPerformanceComputing/Concurrency/sequence_sum.cpp:55:     << "\nSequential runtime: " << std::chrono::duration_cast<std::chrono::milliseconds>(end_time_sequential-start_time_sequential).count() << "ms"
	leaq	.LC5(%rip), %rax	#, tmp161
	movq	%rax, %rsi	# tmp161,
	movq	%rdx, %rdi	# _17,
	call	_ZStlsISt11char_traitsIcEERSt13basic_ostreamIcT_ES5_PKc@PLT	#
# /home/christoph/Code/Algorithms-DataStructures/HighPerformanceComputing/Concurrency/sequence_sum.cpp:56:     << std::endl;
	movq	_ZSt4endlIcSt11char_traitsIcEERSt13basic_ostreamIT_T0_ES6_@GOTPCREL(%rip), %rdx	#, tmp163
	movq	%rdx, %rsi	# tmp162,
	movq	%rax, %rdi	# _18,
	call	_ZNSolsEPFRSoS_E@PLT	#
.LEHE7:
# /home/christoph/Code/Algorithms-DataStructures/HighPerformanceComputing/Concurrency/sequence_sum.cpp:58:     return 0;
	movl	$0, %ebx	#, _79
# /home/christoph/Code/Algorithms-DataStructures/HighPerformanceComputing/Concurrency/sequence_sum.cpp:59: }
	leaq	-48(%rbp), %rax	#, tmp164
	movq	%rax, %rdi	# tmp164,
	call	_ZNSt6vectorIiSaIiEED1Ev	#
	movl	%ebx, %eax	# _79, <retval>
	movq	-24(%rbp), %rdx	# D.192842, tmp169
	subq	%fs:40, %rdx	# MEM[(<address-space-1> long unsigned int *)40B], tmp169
	je	.L183	#,
	jmp	.L185	#
.L184:
	movq	%rax, %rbx	#, tmp167
	leaq	-48(%rbp), %rax	#, tmp166
	movq	%rax, %rdi	# tmp166,
	call	_ZNSt6vectorIiSaIiEED1Ev	#
	movq	%rbx, %rax	# tmp167, D.192840
	movq	%rax, %rdi	# D.192840,
.LEHB8:
	call	_Unwind_Resume@PLT	#
.LEHE8:
.L185:
	call	__stack_chk_fail@PLT	#
.L183:
	movq	-8(%rbp), %rbx	#,
	leave	
	.cfi_def_cfa 7, 8
	ret	
	.cfi_endproc
.LFE5901:
	.section	.gcc_except_table
.LLSDA5901:
	.byte	0xff
	.byte	0xff
	.byte	0x1
	.uleb128 .LLSDACSE5901-.LLSDACSB5901
.LLSDACSB5901:
	.uleb128 .LEHB7-.LFB5901
	.uleb128 .LEHE7-.LEHB7
	.uleb128 .L184-.LFB5901
	.uleb128 0
	.uleb128 .LEHB8-.LFB5901
	.uleb128 .LEHE8-.LEHB8
	.uleb128 0
	.uleb128 0
.LLSDACSE5901:
	.text
	.size	main, .-main
	.section	.text._ZN9__gnu_cxx11char_traitsIcE2eqERKcS3_,"axG",@progbits,_ZN9__gnu_cxx11char_traitsIcE2eqERKcS3_,comdat
	.weak	_ZN9__gnu_cxx11char_traitsIcE2eqERKcS3_
	.type	_ZN9__gnu_cxx11char_traitsIcE2eqERKcS3_, @function
_ZN9__gnu_cxx11char_traitsIcE2eqERKcS3_:
.LFB5969:
	.cfi_startproc
	pushq	%rbp	#
	.cfi_def_cfa_offset 16
	.cfi_offset 6, -16
	movq	%rsp, %rbp	#,
	.cfi_def_cfa_register 6
	movq	%rdi, -8(%rbp)	# __c1, __c1
	movq	%rsi, -16(%rbp)	# __c2, __c2
# /usr/include/c++/11.3.0/bits/char_traits.h:107:       { return __c1 == __c2; }
	movq	-8(%rbp), %rax	# __c1, tmp86
	movzbl	(%rax), %edx	# *__c1_4(D), _1
	movq	-16(%rbp), %rax	# __c2, tmp87
	movzbl	(%rax), %eax	# *__c2_5(D), _2
# /usr/include/c++/11.3.0/bits/char_traits.h:107:       { return __c1 == __c2; }
	cmpb	%al, %dl	# _2, _1
	sete	%al	#, _6
# /usr/include/c++/11.3.0/bits/char_traits.h:107:       { return __c1 == __c2; }
	popq	%rbp	#
	.cfi_def_cfa 7, 8
	ret	
	.cfi_endproc
.LFE5969:
	.size	_ZN9__gnu_cxx11char_traitsIcE2eqERKcS3_, .-_ZN9__gnu_cxx11char_traitsIcE2eqERKcS3_
	.section	.text._ZN9__gnu_cxx11char_traitsIcE6lengthEPKc,"axG",@progbits,_ZN9__gnu_cxx11char_traitsIcE6lengthEPKc,comdat
	.align 2
	.weak	_ZN9__gnu_cxx11char_traitsIcE6lengthEPKc
	.type	_ZN9__gnu_cxx11char_traitsIcE6lengthEPKc, @function
_ZN9__gnu_cxx11char_traitsIcE6lengthEPKc:
.LFB5968:
	.cfi_startproc
	pushq	%rbp	#
	.cfi_def_cfa_offset 16
	.cfi_offset 6, -16
	movq	%rsp, %rbp	#,
	.cfi_def_cfa_register 6
	subq	$48, %rsp	#,
	movq	%rdi, -40(%rbp)	# __p, __p
# /usr/include/c++/11.3.0/bits/char_traits.h:167:     char_traits<_CharT>::
	movq	%fs:40, %rax	# MEM[(<address-space-1> long unsigned int *)40B], tmp91
	movq	%rax, -8(%rbp)	# tmp91, D.192850
	xorl	%eax, %eax	# tmp91
# /usr/include/c++/11.3.0/bits/char_traits.h:170:       std::size_t __i = 0;
	movq	$0, -16(%rbp)	#, __i
# /usr/include/c++/11.3.0/bits/char_traits.h:171:       while (!eq(__p[__i], char_type()))
	jmp	.L189	#
.L190:
# /usr/include/c++/11.3.0/bits/char_traits.h:172:         ++__i;
	addq	$1, -16(%rbp)	#, __i
.L189:
# /usr/include/c++/11.3.0/bits/char_traits.h:171:       while (!eq(__p[__i], char_type()))
	movb	$0, -17(%rbp)	#, D.147871
# /usr/include/c++/11.3.0/bits/char_traits.h:171:       while (!eq(__p[__i], char_type()))
	movq	-40(%rbp), %rdx	# __p, tmp87
	movq	-16(%rbp), %rax	# __i, tmp88
	addq	%rax, %rdx	# tmp88, _1
# /usr/include/c++/11.3.0/bits/char_traits.h:171:       while (!eq(__p[__i], char_type()))
	leaq	-17(%rbp), %rax	#, tmp89
	movq	%rax, %rsi	# tmp89,
	movq	%rdx, %rdi	# _1,
	call	_ZN9__gnu_cxx11char_traitsIcE2eqERKcS3_	#
	xorl	$1, %eax	#, retval.37_10
	testb	%al, %al	# retval.37_10
	jne	.L190	#,
# /usr/include/c++/11.3.0/bits/char_traits.h:173:       return __i;
	movq	-16(%rbp), %rax	# __i, _12
# /usr/include/c++/11.3.0/bits/char_traits.h:174:     }
	movq	-8(%rbp), %rdx	# D.192850, tmp92
	subq	%fs:40, %rdx	# MEM[(<address-space-1> long unsigned int *)40B], tmp92
	je	.L192	#,
	call	__stack_chk_fail@PLT	#
.L192:
	leave	
	.cfi_def_cfa 7, 8
	ret	
	.cfi_endproc
.LFE5968:
	.size	_ZN9__gnu_cxx11char_traitsIcE6lengthEPKc, .-_ZN9__gnu_cxx11char_traitsIcE6lengthEPKc
	.section	.text._ZSt4copyIPKcPcET0_T_S4_S3_,"axG",@progbits,_ZSt4copyIPKcPcET0_T_S4_S3_,comdat
	.weak	_ZSt4copyIPKcPcET0_T_S4_S3_
	.type	_ZSt4copyIPKcPcET0_T_S4_S3_, @function
_ZSt4copyIPKcPcET0_T_S4_S3_:
.LFB5973:
	.cfi_startproc
	pushq	%rbp	#
	.cfi_def_cfa_offset 16
	.cfi_offset 6, -16
	movq	%rsp, %rbp	#,
	.cfi_def_cfa_register 6
	pushq	%rbx	#
	subq	$40, %rsp	#,
	.cfi_offset 3, -24
	movq	%rdi, -24(%rbp)	# __first, __first
	movq	%rsi, -32(%rbp)	# __last, __last
	movq	%rdx, -40(%rbp)	# __result, __result
# /usr/include/c++/11.3.0/bits/stl_algobase.h:620: 	     (std::__miter_base(__first), std::__miter_base(__last), __result);
	movq	-32(%rbp), %rax	# __last, tmp86
	movq	%rax, %rdi	# tmp86,
	call	_ZSt12__miter_baseIPKcET_S2_	#
	movq	%rax, %rbx	#, _1
	movq	-24(%rbp), %rax	# __first, tmp87
	movq	%rax, %rdi	# tmp87,
	call	_ZSt12__miter_baseIPKcET_S2_	#
	movq	%rax, %rcx	#, _2
	movq	-40(%rbp), %rax	# __result, tmp88
	movq	%rax, %rdx	# tmp88,
	movq	%rbx, %rsi	# _1,
	movq	%rcx, %rdi	# _2,
	call	_ZSt13__copy_move_aILb0EPKcPcET1_T0_S4_S3_	#
# /usr/include/c++/11.3.0/bits/stl_algobase.h:621:     }
	movq	-8(%rbp), %rbx	#,
	leave	
	.cfi_def_cfa 7, 8
	ret	
	.cfi_endproc
.LFE5973:
	.size	_ZSt4copyIPKcPcET0_T_S4_S3_, .-_ZSt4copyIPKcPcET0_T_S4_S3_
	.section	.text._ZN9__gnu_cxx11char_traitsIcE4copyEPcPKcm,"axG",@progbits,_ZN9__gnu_cxx11char_traitsIcE4copyEPcPKcm,comdat
	.align 2
	.weak	_ZN9__gnu_cxx11char_traitsIcE4copyEPcPKcm
	.type	_ZN9__gnu_cxx11char_traitsIcE4copyEPcPKcm, @function
_ZN9__gnu_cxx11char_traitsIcE4copyEPcPKcm:
.LFB5972:
	.cfi_startproc
	pushq	%rbp	#
	.cfi_def_cfa_offset 16
	.cfi_offset 6, -16
	movq	%rsp, %rbp	#,
	.cfi_def_cfa_register 6
	subq	$32, %rsp	#,
	movq	%rdi, -8(%rbp)	# __s1, __s1
	movq	%rsi, -16(%rbp)	# __s2, __s2
	movq	%rdx, -24(%rbp)	# __n, __n
# /usr/include/c++/11.3.0/bits/char_traits.h:244:       std::copy(__s2, __s2 + __n, __s1);
	movq	-16(%rbp), %rdx	# __s2, tmp85
	movq	-24(%rbp), %rax	# __n, tmp86
	leaq	(%rdx,%rax), %rcx	#, _1
	movq	-8(%rbp), %rdx	# __s1, tmp87
	movq	-16(%rbp), %rax	# __s2, tmp88
	movq	%rcx, %rsi	# _1,
	movq	%rax, %rdi	# tmp88,
	call	_ZSt4copyIPKcPcET0_T_S4_S3_	#
# /usr/include/c++/11.3.0/bits/char_traits.h:245:       return __s1;
	movq	-8(%rbp), %rax	# __s1, _7
# /usr/include/c++/11.3.0/bits/char_traits.h:246:     }
	leave	
	.cfi_def_cfa 7, 8
	ret	
	.cfi_endproc
.LFE5972:
	.size	_ZN9__gnu_cxx11char_traitsIcE4copyEPcPKcm, .-_ZN9__gnu_cxx11char_traitsIcE4copyEPcPKcm
	.section	.text._ZN9__gnu_cxx11char_traitsIcE4moveEPcPKcm,"axG",@progbits,_ZN9__gnu_cxx11char_traitsIcE4moveEPcPKcm,comdat
	.align 2
	.weak	_ZN9__gnu_cxx11char_traitsIcE4moveEPcPKcm
	.type	_ZN9__gnu_cxx11char_traitsIcE4moveEPcPKcm, @function
_ZN9__gnu_cxx11char_traitsIcE4moveEPcPKcm:
.LFB5971:
	.cfi_startproc
	pushq	%rbp	#
	.cfi_def_cfa_offset 16
	.cfi_offset 6, -16
	movq	%rsp, %rbp	#,
	.cfi_def_cfa_register 6
	subq	$48, %rsp	#,
	movq	%rdi, -24(%rbp)	# __s1, __s1
	movq	%rsi, -32(%rbp)	# __s2, __s2
	movq	%rdx, -40(%rbp)	# __n, __n
# /usr/include/c++/11.3.0/bits/char_traits.h:193:       if (__n == 0)
	cmpq	$0, -40(%rbp)	#, __n
	jne	.L198	#,
# /usr/include/c++/11.3.0/bits/char_traits.h:194: 	return __s1;
	movq	-24(%rbp), %rax	# __s1, _1
	jmp	.L199	#
.L198:
# /usr/include/c++/11.3.0/bits/char_traits.h:196:       if (std::is_constant_evaluated())
	call	_ZSt21is_constant_evaluatedv	#
# /usr/include/c++/11.3.0/bits/char_traits.h:196:       if (std::is_constant_evaluated())
	testb	%al, %al	# retval.48_7
	je	.L200	#,
# /usr/include/c++/11.3.0/bits/char_traits.h:198: 	  if (__s1 == __s2) // unlikely, but saves a lot of work
	movq	-24(%rbp), %rax	# __s1, tmp87
	cmpq	-32(%rbp), %rax	# __s2, tmp87
	jne	.L201	#,
# /usr/include/c++/11.3.0/bits/char_traits.h:199: 	    return __s1;
	movq	-24(%rbp), %rax	# __s1, _1
	jmp	.L199	#
.L201:
# /usr/include/c++/11.3.0/bits/char_traits.h:203: 	  char_type* __tmp = new char_type[__n];
	movq	-40(%rbp), %rax	# __n, __n.49_12
	movq	%rax, %rdi	# __n.49_12,
	call	_Znam@PLT	#
	movq	%rax, -8(%rbp)	# _14, __tmp
# /usr/include/c++/11.3.0/bits/char_traits.h:204: 	  copy(__tmp, __s2, __n);
	movq	-40(%rbp), %rdx	# __n, tmp89
	movq	-32(%rbp), %rcx	# __s2, tmp90
	movq	-8(%rbp), %rax	# __tmp, tmp91
	movq	%rcx, %rsi	# tmp90,
	movq	%rax, %rdi	# tmp91,
	call	_ZN9__gnu_cxx11char_traitsIcE4copyEPcPKcm	#
# /usr/include/c++/11.3.0/bits/char_traits.h:205: 	  copy(__s1, __tmp, __n);
	movq	-40(%rbp), %rdx	# __n, tmp92
	movq	-8(%rbp), %rcx	# __tmp, tmp93
	movq	-24(%rbp), %rax	# __s1, tmp94
	movq	%rcx, %rsi	# tmp93,
	movq	%rax, %rdi	# tmp94,
	call	_ZN9__gnu_cxx11char_traitsIcE4copyEPcPKcm	#
# /usr/include/c++/11.3.0/bits/char_traits.h:206: 	  delete[] __tmp;
	cmpq	$0, -8(%rbp)	#, __tmp
	je	.L202	#,
# /usr/include/c++/11.3.0/bits/char_traits.h:206: 	  delete[] __tmp;
	movq	-8(%rbp), %rax	# __tmp, tmp95
	movq	%rax, %rdi	# tmp95,
	call	_ZdaPv@PLT	#
.L202:
# /usr/include/c++/11.3.0/bits/char_traits.h:230: 	  return __s1;
	movq	-24(%rbp), %rax	# __s1, _1
	jmp	.L199	#
.L200:
# /usr/include/c++/11.3.0/bits/char_traits.h:233:       __builtin_memmove(__s1, __s2, __n * sizeof(char_type));
	movq	-40(%rbp), %rdx	# __n, tmp98
	movq	-32(%rbp), %rcx	# __s2, tmp99
	movq	-24(%rbp), %rax	# __s1, tmp100
	movq	%rcx, %rsi	# tmp99,
	movq	%rax, %rdi	# tmp100,
	call	memmove@PLT	#
# /usr/include/c++/11.3.0/bits/char_traits.h:234:       return __s1;
	movq	-24(%rbp), %rax	# __s1, _1
.L199:
# /usr/include/c++/11.3.0/bits/char_traits.h:235:     }
	leave	
	.cfi_def_cfa 7, 8
	ret	
	.cfi_endproc
.LFE5971:
	.size	_ZN9__gnu_cxx11char_traitsIcE4moveEPcPKcm, .-_ZN9__gnu_cxx11char_traitsIcE4moveEPcPKcm
	.section	.text._ZNSt7__cxx1112basic_stringIcSt11char_traitsIcESaIcEE12_Alloc_hiderD2Ev,"axG",@progbits,_ZNSt7__cxx1112basic_stringIcSt11char_traitsIcESaIcEE12_Alloc_hiderD5Ev,comdat
	.align 2
	.weak	_ZNSt7__cxx1112basic_stringIcSt11char_traitsIcESaIcEE12_Alloc_hiderD2Ev
	.type	_ZNSt7__cxx1112basic_stringIcSt11char_traitsIcESaIcEE12_Alloc_hiderD2Ev, @function
_ZNSt7__cxx1112basic_stringIcSt11char_traitsIcESaIcEE12_Alloc_hiderD2Ev:
.LFB6107:
	.cfi_startproc
	pushq	%rbp	#
	.cfi_def_cfa_offset 16
	.cfi_offset 6, -16
	movq	%rsp, %rbp	#,
	.cfi_def_cfa_register 6
	subq	$16, %rsp	#,
	movq	%rdi, -8(%rbp)	# this, this
# /usr/include/c++/11.3.0/bits/basic_string.h:158:       struct _Alloc_hider : allocator_type // TODO check __is_final
	movq	-8(%rbp), %rax	# this, tmp82
	movq	%rax, %rdi	# tmp82,
	call	_ZNSaIcED2Ev@PLT	#
	nop	
	leave	
	.cfi_def_cfa 7, 8
	ret	
	.cfi_endproc
.LFE6107:
	.size	_ZNSt7__cxx1112basic_stringIcSt11char_traitsIcESaIcEE12_Alloc_hiderD2Ev, .-_ZNSt7__cxx1112basic_stringIcSt11char_traitsIcESaIcEE12_Alloc_hiderD2Ev
	.weak	_ZNSt7__cxx1112basic_stringIcSt11char_traitsIcESaIcEE12_Alloc_hiderD1Ev
	.set	_ZNSt7__cxx1112basic_stringIcSt11char_traitsIcESaIcEE12_Alloc_hiderD1Ev,_ZNSt7__cxx1112basic_stringIcSt11char_traitsIcESaIcEE12_Alloc_hiderD2Ev
	.section	.text._ZNSt7__cxx1112basic_stringIcSt11char_traitsIcESaIcEED2Ev,"axG",@progbits,_ZNSt7__cxx1112basic_stringIcSt11char_traitsIcESaIcEED5Ev,comdat
	.align 2
	.weak	_ZNSt7__cxx1112basic_stringIcSt11char_traitsIcESaIcEED2Ev
	.type	_ZNSt7__cxx1112basic_stringIcSt11char_traitsIcESaIcEED2Ev, @function
_ZNSt7__cxx1112basic_stringIcSt11char_traitsIcESaIcEED2Ev:
.LFB6112:
	.cfi_startproc
	.cfi_personality 0x9b,DW.ref.__gxx_personality_v0
	.cfi_lsda 0x1b,.LLSDA6112
	pushq	%rbp	#
	.cfi_def_cfa_offset 16
	.cfi_offset 6, -16
	movq	%rsp, %rbp	#,
	.cfi_def_cfa_register 6
	subq	$16, %rsp	#,
	movq	%rdi, -8(%rbp)	# this, this
# /usr/include/c++/11.3.0/bits/basic_string.h:672:       { _M_dispose(); }
	movq	-8(%rbp), %rax	# this, tmp83
	movq	%rax, %rdi	# tmp83,
	call	_ZNSt7__cxx1112basic_stringIcSt11char_traitsIcESaIcEE10_M_disposeEv	#
# /usr/include/c++/11.3.0/bits/basic_string.h:672:       { _M_dispose(); }
	movq	-8(%rbp), %rax	# this, _1
	movq	%rax, %rdi	# _1,
	call	_ZNSt7__cxx1112basic_stringIcSt11char_traitsIcESaIcEE12_Alloc_hiderD1Ev	#
	nop	
	leave	
	.cfi_def_cfa 7, 8
	ret	
	.cfi_endproc
.LFE6112:
	.section	.gcc_except_table
.LLSDA6112:
	.byte	0xff
	.byte	0xff
	.byte	0x1
	.uleb128 .LLSDACSE6112-.LLSDACSB6112
.LLSDACSB6112:
.LLSDACSE6112:
	.section	.text._ZNSt7__cxx1112basic_stringIcSt11char_traitsIcESaIcEED2Ev,"axG",@progbits,_ZNSt7__cxx1112basic_stringIcSt11char_traitsIcESaIcEED5Ev,comdat
	.size	_ZNSt7__cxx1112basic_stringIcSt11char_traitsIcESaIcEED2Ev, .-_ZNSt7__cxx1112basic_stringIcSt11char_traitsIcESaIcEED2Ev
	.weak	_ZNSt7__cxx1112basic_stringIcSt11char_traitsIcESaIcEED1Ev
	.set	_ZNSt7__cxx1112basic_stringIcSt11char_traitsIcESaIcEED1Ev,_ZNSt7__cxx1112basic_stringIcSt11char_traitsIcESaIcEED2Ev
	.section	.text._ZNSt7__cxx1112basic_stringIcSt11char_traitsIcESaIcEEC2EOS4_,"axG",@progbits,_ZNSt7__cxx1112basic_stringIcSt11char_traitsIcESaIcEEC5EOS4_,comdat
	.align 2
	.weak	_ZNSt7__cxx1112basic_stringIcSt11char_traitsIcESaIcEEC2EOS4_
	.type	_ZNSt7__cxx1112basic_stringIcSt11char_traitsIcESaIcEEC2EOS4_, @function
_ZNSt7__cxx1112basic_stringIcSt11char_traitsIcESaIcEEC2EOS4_:
.LFB6117:
	.cfi_startproc
	.cfi_personality 0x9b,DW.ref.__gxx_personality_v0
	.cfi_lsda 0x1b,.LLSDA6117
	pushq	%rbp	#
	.cfi_def_cfa_offset 16
	.cfi_offset 6, -16
	movq	%rsp, %rbp	#,
	.cfi_def_cfa_register 6
	pushq	%r12	#
	pushq	%rbx	#
	subq	$16, %rsp	#,
	.cfi_offset 12, -24
	.cfi_offset 3, -32
	movq	%rdi, -24(%rbp)	# this, this
	movq	%rsi, -32(%rbp)	# __str, __str
# /usr/include/c++/11.3.0/bits/basic_string.h:566:       : _M_dataplus(_M_local_data(), std::move(__str._M_get_allocator()))
	movq	-24(%rbp), %rbx	# this, _1
# /usr/include/c++/11.3.0/bits/basic_string.h:566:       : _M_dataplus(_M_local_data(), std::move(__str._M_get_allocator()))
	movq	-32(%rbp), %rax	# __str, tmp94
	movq	%rax, %rdi	# tmp94,
	call	_ZNSt7__cxx1112basic_stringIcSt11char_traitsIcESaIcEE16_M_get_allocatorEv	#
# /usr/include/c++/11.3.0/bits/basic_string.h:566:       : _M_dataplus(_M_local_data(), std::move(__str._M_get_allocator()))
	movq	%rax, %rdi	# _2,
	call	_ZSt4moveIRSaIcEEONSt16remove_referenceIT_E4typeEOS3_	#
	movq	%rax, %r12	#, _3
# /usr/include/c++/11.3.0/bits/basic_string.h:566:       : _M_dataplus(_M_local_data(), std::move(__str._M_get_allocator()))
	movq	-24(%rbp), %rax	# this, tmp95
	movq	%rax, %rdi	# tmp95,
	call	_ZNSt7__cxx1112basic_stringIcSt11char_traitsIcESaIcEE13_M_local_dataEv	#
	movq	%r12, %rdx	# _3,
	movq	%rax, %rsi	# _4,
	movq	%rbx, %rdi	# _1,
	call	_ZNSt7__cxx1112basic_stringIcSt11char_traitsIcESaIcEE12_Alloc_hiderC1EPcOS3_	#
# /usr/include/c++/11.3.0/bits/basic_string.h:568: 	if (__str._M_is_local())
	movq	-32(%rbp), %rax	# __str, tmp96
	movq	%rax, %rdi	# tmp96,
	call	_ZNKSt7__cxx1112basic_stringIcSt11char_traitsIcESaIcEE11_M_is_localEv	#
# /usr/include/c++/11.3.0/bits/basic_string.h:568: 	if (__str._M_is_local())
	testb	%al, %al	# _22
	je	.L206	#,
# /usr/include/c++/11.3.0/bits/basic_string.h:570: 	    traits_type::copy(_M_local_buf, __str._M_local_buf,
	movq	-32(%rbp), %rax	# __str, tmp97
	leaq	16(%rax), %rcx	#, _5
# /usr/include/c++/11.3.0/bits/basic_string.h:570: 	    traits_type::copy(_M_local_buf, __str._M_local_buf,
	movq	-24(%rbp), %rax	# this, tmp98
	addq	$16, %rax	#, _6
# /usr/include/c++/11.3.0/bits/basic_string.h:570: 	    traits_type::copy(_M_local_buf, __str._M_local_buf,
	movl	$16, %edx	#,
	movq	%rcx, %rsi	# _5,
	movq	%rax, %rdi	# _6,
	call	_ZNSt11char_traitsIcE4copyEPcPKcm	#
	jmp	.L207	#
.L206:
# /usr/include/c++/11.3.0/bits/basic_string.h:575: 	    _M_data(__str._M_data());
	movq	-32(%rbp), %rax	# __str, tmp99
	movq	%rax, %rdi	# tmp99,
	call	_ZNKSt7__cxx1112basic_stringIcSt11char_traitsIcESaIcEE7_M_dataEv	#
	movq	%rax, %rdx	#, _7
	movq	-24(%rbp), %rax	# this, tmp100
	movq	%rdx, %rsi	# _7,
	movq	%rax, %rdi	# tmp100,
	call	_ZNSt7__cxx1112basic_stringIcSt11char_traitsIcESaIcEE7_M_dataEPc	#
# /usr/include/c++/11.3.0/bits/basic_string.h:576: 	    _M_capacity(__str._M_allocated_capacity);
	movq	-32(%rbp), %rax	# __str, tmp101
	movq	16(%rax), %rdx	# __str_16(D)->D.51550._M_allocated_capacity, _8
	movq	-24(%rbp), %rax	# this, tmp102
	movq	%rdx, %rsi	# _8,
	movq	%rax, %rdi	# tmp102,
	call	_ZNSt7__cxx1112basic_stringIcSt11char_traitsIcESaIcEE11_M_capacityEm	#
.L207:
# /usr/include/c++/11.3.0/bits/basic_string.h:582: 	_M_length(__str.length());
	movq	-32(%rbp), %rax	# __str, tmp103
	movq	%rax, %rdi	# tmp103,
	call	_ZNKSt7__cxx1112basic_stringIcSt11char_traitsIcESaIcEE6lengthEv	#
	movq	%rax, %rdx	#, _9
	movq	-24(%rbp), %rax	# this, tmp104
	movq	%rdx, %rsi	# _9,
	movq	%rax, %rdi	# tmp104,
	call	_ZNSt7__cxx1112basic_stringIcSt11char_traitsIcESaIcEE9_M_lengthEm	#
# /usr/include/c++/11.3.0/bits/basic_string.h:583: 	__str._M_data(__str._M_local_data());
	movq	-32(%rbp), %rax	# __str, tmp105
	movq	%rax, %rdi	# tmp105,
	call	_ZNSt7__cxx1112basic_stringIcSt11char_traitsIcESaIcEE13_M_local_dataEv	#
	movq	%rax, %rdx	#, _10
	movq	-32(%rbp), %rax	# __str, tmp106
	movq	%rdx, %rsi	# _10,
	movq	%rax, %rdi	# tmp106,
	call	_ZNSt7__cxx1112basic_stringIcSt11char_traitsIcESaIcEE7_M_dataEPc	#
# /usr/include/c++/11.3.0/bits/basic_string.h:584: 	__str._M_set_length(0);
	movq	-32(%rbp), %rax	# __str, tmp107
	movl	$0, %esi	#,
	movq	%rax, %rdi	# tmp107,
	call	_ZNSt7__cxx1112basic_stringIcSt11char_traitsIcESaIcEE13_M_set_lengthEm	#
# /usr/include/c++/11.3.0/bits/basic_string.h:585:       }
	nop	
	addq	$16, %rsp	#,
	popq	%rbx	#
	popq	%r12	#
	popq	%rbp	#
	.cfi_def_cfa 7, 8
	ret	
	.cfi_endproc
.LFE6117:
	.section	.gcc_except_table
.LLSDA6117:
	.byte	0xff
	.byte	0xff
	.byte	0x1
	.uleb128 .LLSDACSE6117-.LLSDACSB6117
.LLSDACSB6117:
.LLSDACSE6117:
	.section	.text._ZNSt7__cxx1112basic_stringIcSt11char_traitsIcESaIcEEC2EOS4_,"axG",@progbits,_ZNSt7__cxx1112basic_stringIcSt11char_traitsIcESaIcEEC5EOS4_,comdat
	.size	_ZNSt7__cxx1112basic_stringIcSt11char_traitsIcESaIcEEC2EOS4_, .-_ZNSt7__cxx1112basic_stringIcSt11char_traitsIcESaIcEEC2EOS4_
	.weak	_ZNSt7__cxx1112basic_stringIcSt11char_traitsIcESaIcEEC1EOS4_
	.set	_ZNSt7__cxx1112basic_stringIcSt11char_traitsIcESaIcEEC1EOS4_,_ZNSt7__cxx1112basic_stringIcSt11char_traitsIcESaIcEEC2EOS4_
	.section	.text._ZNKSt7__cxx1112basic_stringIcSt11char_traitsIcESaIcEE4sizeEv,"axG",@progbits,_ZNKSt7__cxx1112basic_stringIcSt11char_traitsIcESaIcEE4sizeEv,comdat
	.align 2
	.weak	_ZNKSt7__cxx1112basic_stringIcSt11char_traitsIcESaIcEE4sizeEv
	.type	_ZNKSt7__cxx1112basic_stringIcSt11char_traitsIcESaIcEE4sizeEv, @function
_ZNKSt7__cxx1112basic_stringIcSt11char_traitsIcESaIcEE4sizeEv:
.LFB6119:
	.cfi_startproc
	pushq	%rbp	#
	.cfi_def_cfa_offset 16
	.cfi_offset 6, -16
	movq	%rsp, %rbp	#,
	.cfi_def_cfa_register 6
	movq	%rdi, -8(%rbp)	# this, this
# /usr/include/c++/11.3.0/bits/basic_string.h:921:       { return _M_string_length; }
	movq	-8(%rbp), %rax	# this, tmp84
	movq	8(%rax), %rax	# this_2(D)->_M_string_length, _3
# /usr/include/c++/11.3.0/bits/basic_string.h:921:       { return _M_string_length; }
	popq	%rbp	#
	.cfi_def_cfa 7, 8
	ret	
	.cfi_endproc
.LFE6119:
	.size	_ZNKSt7__cxx1112basic_stringIcSt11char_traitsIcESaIcEE4sizeEv, .-_ZNKSt7__cxx1112basic_stringIcSt11char_traitsIcESaIcEE4sizeEv
	.section	.text._ZNKSt7__cxx1112basic_stringIcSt11char_traitsIcESaIcEE6lengthEv,"axG",@progbits,_ZNKSt7__cxx1112basic_stringIcSt11char_traitsIcESaIcEE6lengthEv,comdat
	.align 2
	.weak	_ZNKSt7__cxx1112basic_stringIcSt11char_traitsIcESaIcEE6lengthEv
	.type	_ZNKSt7__cxx1112basic_stringIcSt11char_traitsIcESaIcEE6lengthEv, @function
_ZNKSt7__cxx1112basic_stringIcSt11char_traitsIcESaIcEE6lengthEv:
.LFB6204:
	.cfi_startproc
	pushq	%rbp	#
	.cfi_def_cfa_offset 16
	.cfi_offset 6, -16
	movq	%rsp, %rbp	#,
	.cfi_def_cfa_register 6
	movq	%rdi, -8(%rbp)	# this, this
# /usr/include/c++/11.3.0/bits/basic_string.h:927:       { return _M_string_length; }
	movq	-8(%rbp), %rax	# this, tmp84
	movq	8(%rax), %rax	# this_2(D)->_M_string_length, _3
# /usr/include/c++/11.3.0/bits/basic_string.h:927:       { return _M_string_length; }
	popq	%rbp	#
	.cfi_def_cfa 7, 8
	ret	
	.cfi_endproc
.LFE6204:
	.size	_ZNKSt7__cxx1112basic_stringIcSt11char_traitsIcESaIcEE6lengthEv, .-_ZNKSt7__cxx1112basic_stringIcSt11char_traitsIcESaIcEE6lengthEv
	.section	.text._ZStplIcSt11char_traitsIcESaIcEENSt7__cxx1112basic_stringIT_T0_T1_EEPKS5_OS8_,"axG",@progbits,_ZStplIcSt11char_traitsIcESaIcEENSt7__cxx1112basic_stringIT_T0_T1_EEPKS5_OS8_,comdat
	.weak	_ZStplIcSt11char_traitsIcESaIcEENSt7__cxx1112basic_stringIT_T0_T1_EEPKS5_OS8_
	.type	_ZStplIcSt11char_traitsIcESaIcEENSt7__cxx1112basic_stringIT_T0_T1_EEPKS5_OS8_, @function
_ZStplIcSt11char_traitsIcESaIcEENSt7__cxx1112basic_stringIT_T0_T1_EEPKS5_OS8_:
.LFB6272:
	.cfi_startproc
	pushq	%rbp	#
	.cfi_def_cfa_offset 16
	.cfi_offset 6, -16
	movq	%rsp, %rbp	#,
	.cfi_def_cfa_register 6
	subq	$32, %rsp	#,
	movq	%rdi, -8(%rbp)	# .result_ptr, .result_ptr
	movq	%rsi, -16(%rbp)	# __lhs, __lhs
	movq	%rdx, -24(%rbp)	# __rhs, __rhs
# /usr/include/c++/11.3.0/bits/basic_string.h:6196:     { return std::move(__rhs.insert(0, __lhs)); }
	movq	-16(%rbp), %rdx	# __lhs, tmp84
	movq	-24(%rbp), %rax	# __rhs, tmp85
	movl	$0, %esi	#,
	movq	%rax, %rdi	# tmp85,
	call	_ZNSt7__cxx1112basic_stringIcSt11char_traitsIcESaIcEE6insertEmPKc	#
	movq	%rax, %rdi	# _1,
	call	_ZSt4moveIRNSt7__cxx1112basic_stringIcSt11char_traitsIcESaIcEEEEONSt16remove_referenceIT_E4typeEOS8_	#
	movq	%rax, %rdx	#, _2
# /usr/include/c++/11.3.0/bits/basic_string.h:6196:     { return std::move(__rhs.insert(0, __lhs)); }
	movq	-8(%rbp), %rax	# <retval>, tmp86
	movq	%rdx, %rsi	# _2,
	movq	%rax, %rdi	# tmp86,
	call	_ZNSt7__cxx1112basic_stringIcSt11char_traitsIcESaIcEEC1EOS4_	#
# /usr/include/c++/11.3.0/bits/basic_string.h:6196:     { return std::move(__rhs.insert(0, __lhs)); }
	movq	-8(%rbp), %rax	# <retval>,
	leave	
	.cfi_def_cfa 7, 8
	ret	
	.cfi_endproc
.LFE6272:
	.size	_ZStplIcSt11char_traitsIcESaIcEENSt7__cxx1112basic_stringIT_T0_T1_EEPKS5_OS8_, .-_ZStplIcSt11char_traitsIcESaIcEENSt7__cxx1112basic_stringIT_T0_T1_EEPKS5_OS8_
	.section	.text._ZNSt13__atomic_baseIjEC2Ej,"axG",@progbits,_ZNSt13__atomic_baseIjEC5Ej,comdat
	.align 2
	.weak	_ZNSt13__atomic_baseIjEC2Ej
	.type	_ZNSt13__atomic_baseIjEC2Ej, @function
_ZNSt13__atomic_baseIjEC2Ej:
.LFB6322:
	.cfi_startproc
	pushq	%rbp	#
	.cfi_def_cfa_offset 16
	.cfi_offset 6, -16
	movq	%rsp, %rbp	#,
	.cfi_def_cfa_register 6
	movq	%rdi, -8(%rbp)	# this, this
	movl	%esi, -12(%rbp)	# __i, __i
# /usr/include/c++/11.3.0/bits/atomic_base.h:338:       constexpr __atomic_base(__int_type __i) noexcept : _M_i (__i) { }
	movq	-8(%rbp), %rax	# this, tmp82
	movl	-12(%rbp), %edx	# __i, tmp83
	movl	%edx, (%rax)	# tmp83, this_2(D)->_M_i
# /usr/include/c++/11.3.0/bits/atomic_base.h:338:       constexpr __atomic_base(__int_type __i) noexcept : _M_i (__i) { }
	nop	
	popq	%rbp	#
	.cfi_def_cfa 7, 8
	ret	
	.cfi_endproc
.LFE6322:
	.size	_ZNSt13__atomic_baseIjEC2Ej, .-_ZNSt13__atomic_baseIjEC2Ej
	.weak	_ZNSt13__atomic_baseIjEC1Ej
	.set	_ZNSt13__atomic_baseIjEC1Ej,_ZNSt13__atomic_baseIjEC2Ej
	.section	.text._ZSt4swapINSt6thread2idEENSt9enable_ifIXsrSt6__and_IJSt6__not_ISt15__is_tuple_likeIT_EESt21is_move_constructibleIS6_ESt18is_move_assignableIS6_EEE5valueEvE4typeERS6_SG_,"axG",@progbits,_ZSt4swapINSt6thread2idEENSt9enable_ifIXsrSt6__and_IJSt6__not_ISt15__is_tuple_likeIT_EESt21is_move_constructibleIS6_ESt18is_move_assignableIS6_EEE5valueEvE4typeERS6_SG_,comdat
	.weak	_ZSt4swapINSt6thread2idEENSt9enable_ifIXsrSt6__and_IJSt6__not_ISt15__is_tuple_likeIT_EESt21is_move_constructibleIS6_ESt18is_move_assignableIS6_EEE5valueEvE4typeERS6_SG_
	.type	_ZSt4swapINSt6thread2idEENSt9enable_ifIXsrSt6__and_IJSt6__not_ISt15__is_tuple_likeIT_EESt21is_move_constructibleIS6_ESt18is_move_assignableIS6_EEE5valueEvE4typeERS6_SG_, @function
_ZSt4swapINSt6thread2idEENSt9enable_ifIXsrSt6__and_IJSt6__not_ISt15__is_tuple_likeIT_EESt21is_move_constructibleIS6_ESt18is_move_assignableIS6_EEE5valueEvE4typeERS6_SG_:
.LFB6357:
	.cfi_startproc
	pushq	%rbp	#
	.cfi_def_cfa_offset 16
	.cfi_offset 6, -16
	movq	%rsp, %rbp	#,
	.cfi_def_cfa_register 6
	subq	$32, %rsp	#,
	movq	%rdi, -24(%rbp)	# __a, __a
	movq	%rsi, -32(%rbp)	# __b, __b
# /usr/include/c++/11.3.0/bits/move.h:196:     swap(_Tp& __a, _Tp& __b)
	movq	%fs:40, %rax	# MEM[(<address-space-1> long unsigned int *)40B], tmp93
	movq	%rax, -8(%rbp)	# tmp93, D.192852
	xorl	%eax, %eax	# tmp93
# /usr/include/c++/11.3.0/bits/move.h:204:       _Tp __tmp = _GLIBCXX_MOVE(__a);
	movq	-24(%rbp), %rax	# __a, tmp85
	movq	%rax, %rdi	# tmp85,
	call	_ZSt4moveIRNSt6thread2idEEONSt16remove_referenceIT_E4typeEOS4_	#
# /usr/include/c++/11.3.0/bits/move.h:204:       _Tp __tmp = _GLIBCXX_MOVE(__a);
	movq	(%rax), %rax	# MEM[(struct id &)_1], tmp86
	movq	%rax, -16(%rbp)	# tmp86, __tmp
# /usr/include/c++/11.3.0/bits/move.h:205:       __a = _GLIBCXX_MOVE(__b);
	movq	-32(%rbp), %rax	# __b, tmp87
	movq	%rax, %rdi	# tmp87,
	call	_ZSt4moveIRNSt6thread2idEEONSt16remove_referenceIT_E4typeEOS4_	#
# /usr/include/c++/11.3.0/bits/move.h:205:       __a = _GLIBCXX_MOVE(__b);
	movq	-24(%rbp), %rdx	# __a, tmp88
	movq	(%rax), %rax	# MEM[(struct id &)_2], tmp89
	movq	%rax, (%rdx)	# tmp89, *__a_5(D)
# /usr/include/c++/11.3.0/bits/move.h:206:       __b = _GLIBCXX_MOVE(__tmp);
	leaq	-16(%rbp), %rax	#, tmp90
	movq	%rax, %rdi	# tmp90,
	call	_ZSt4moveIRNSt6thread2idEEONSt16remove_referenceIT_E4typeEOS4_	#
# /usr/include/c++/11.3.0/bits/move.h:206:       __b = _GLIBCXX_MOVE(__tmp);
	movq	-32(%rbp), %rdx	# __b, tmp91
	movq	(%rax), %rax	# MEM[(struct id &)_3], tmp92
	movq	%rax, (%rdx)	# tmp92, *__b_8(D)
# /usr/include/c++/11.3.0/bits/move.h:207:     }
	nop	
	movq	-8(%rbp), %rax	# D.192852, tmp94
	subq	%fs:40, %rax	# MEM[(<address-space-1> long unsigned int *)40B], tmp94
	je	.L216	#,
	call	__stack_chk_fail@PLT	#
.L216:
	leave	
	.cfi_def_cfa 7, 8
	ret	
	.cfi_endproc
.LFE6357:
	.size	_ZSt4swapINSt6thread2idEENSt9enable_ifIXsrSt6__and_IJSt6__not_ISt15__is_tuple_likeIT_EESt21is_move_constructibleIS6_ESt18is_move_assignableIS6_EEE5valueEvE4typeERS6_SG_, .-_ZSt4swapINSt6thread2idEENSt9enable_ifIXsrSt6__and_IJSt6__not_ISt15__is_tuple_likeIT_EESt21is_move_constructibleIS6_ESt18is_move_assignableIS6_EEE5valueEvE4typeERS6_SG_
	.section	.text._ZNKSt6chrono10time_pointINS_3_V212steady_clockENS_8durationIlSt5ratioILl1ELl1000000000EEEEE16time_since_epochEv,"axG",@progbits,_ZNKSt6chrono10time_pointINS_3_V212steady_clockENS_8durationIlSt5ratioILl1ELl1000000000EEEEE16time_since_epochEv,comdat
	.align 2
	.weak	_ZNKSt6chrono10time_pointINS_3_V212steady_clockENS_8durationIlSt5ratioILl1ELl1000000000EEEEE16time_since_epochEv
	.type	_ZNKSt6chrono10time_pointINS_3_V212steady_clockENS_8durationIlSt5ratioILl1ELl1000000000EEEEE16time_since_epochEv, @function
_ZNKSt6chrono10time_pointINS_3_V212steady_clockENS_8durationIlSt5ratioILl1ELl1000000000EEEEE16time_since_epochEv:
.LFB6359:
	.cfi_startproc
	pushq	%rbp	#
	.cfi_def_cfa_offset 16
	.cfi_offset 6, -16
	movq	%rsp, %rbp	#,
	.cfi_def_cfa_register 6
	movq	%rdi, -8(%rbp)	# this, this
# /usr/include/c++/11.3.0/chrono:899: 	{ return __d; }
	movq	-8(%rbp), %rax	# this, tmp84
	movq	(%rax), %rax	# this_2(D)->__d, D.191939
# /usr/include/c++/11.3.0/chrono:899: 	{ return __d; }
	popq	%rbp	#
	.cfi_def_cfa 7, 8
	ret	
	.cfi_endproc
.LFE6359:
	.size	_ZNKSt6chrono10time_pointINS_3_V212steady_clockENS_8durationIlSt5ratioILl1ELl1000000000EEEEE16time_since_epochEv, .-_ZNKSt6chrono10time_pointINS_3_V212steady_clockENS_8durationIlSt5ratioILl1ELl1000000000EEEEE16time_since_epochEv
	.section	.text._ZNSt6chronomiINS_3_V212steady_clockENS_8durationIlSt5ratioILl1ELl1000000000EEEES6_EENSt11common_typeIJT0_T1_EE4typeERKNS_10time_pointIT_S8_EERKNSC_ISD_S9_EE,"axG",@progbits,_ZNSt6chronomiINS_3_V212steady_clockENS_8durationIlSt5ratioILl1ELl1000000000EEEES6_EENSt11common_typeIJT0_T1_EE4typeERKNS_10time_pointIT_S8_EERKNSC_ISD_S9_EE,comdat
	.weak	_ZNSt6chronomiINS_3_V212steady_clockENS_8durationIlSt5ratioILl1ELl1000000000EEEES6_EENSt11common_typeIJT0_T1_EE4typeERKNS_10time_pointIT_S8_EERKNSC_ISD_S9_EE
	.type	_ZNSt6chronomiINS_3_V212steady_clockENS_8durationIlSt5ratioILl1ELl1000000000EEEES6_EENSt11common_typeIJT0_T1_EE4typeERKNS_10time_pointIT_S8_EERKNSC_ISD_S9_EE, @function
_ZNSt6chronomiINS_3_V212steady_clockENS_8durationIlSt5ratioILl1ELl1000000000EEEES6_EENSt11common_typeIJT0_T1_EE4typeERKNS_10time_pointIT_S8_EERKNSC_ISD_S9_EE:
.LFB6360:
	.cfi_startproc
	pushq	%rbp	#
	.cfi_def_cfa_offset 16
	.cfi_offset 6, -16
	movq	%rsp, %rbp	#,
	.cfi_def_cfa_register 6
	subq	$48, %rsp	#,
	movq	%rdi, -40(%rbp)	# __lhs, __lhs
	movq	%rsi, -48(%rbp)	# __rhs, __rhs
# /usr/include/c++/11.3.0/chrono:1042:       operator-(const time_point<_Clock, _Dur1>& __lhs,
	movq	%fs:40, %rax	# MEM[(<address-space-1> long unsigned int *)40B], tmp93
	movq	%rax, -8(%rbp)	# tmp93, D.192853
	xorl	%eax, %eax	# tmp93
# /usr/include/c++/11.3.0/chrono:1044:       { return __lhs.time_since_epoch() - __rhs.time_since_epoch(); }
	movq	-48(%rbp), %rax	# __rhs, tmp84
	movq	%rax, %rdi	# tmp84,
	call	_ZNKSt6chrono10time_pointINS_3_V212steady_clockENS_8durationIlSt5ratioILl1ELl1000000000EEEEE16time_since_epochEv	#
	movq	%rax, -16(%rbp)	# tmp86, D.151744
# /usr/include/c++/11.3.0/chrono:1044:       { return __lhs.time_since_epoch() - __rhs.time_since_epoch(); }
	movq	-40(%rbp), %rax	# __lhs, tmp87
	movq	%rax, %rdi	# tmp87,
	call	_ZNKSt6chrono10time_pointINS_3_V212steady_clockENS_8durationIlSt5ratioILl1ELl1000000000EEEEE16time_since_epochEv	#
	movq	%rax, -24(%rbp)	# tmp89, D.151743
# /usr/include/c++/11.3.0/chrono:1044:       { return __lhs.time_since_epoch() - __rhs.time_since_epoch(); }
	leaq	-16(%rbp), %rdx	#, tmp90
	leaq	-24(%rbp), %rax	#, tmp91
	movq	%rdx, %rsi	# tmp90,
	movq	%rax, %rdi	# tmp91,
	call	_ZNSt6chronomiIlSt5ratioILl1ELl1000000000EElS2_EENSt11common_typeIJNS_8durationIT_T0_EENS4_IT1_T2_EEEE4typeERKS7_RKSA_	#
# /usr/include/c++/11.3.0/chrono:1044:       { return __lhs.time_since_epoch() - __rhs.time_since_epoch(); }
	movq	-8(%rbp), %rdx	# D.192853, tmp94
	subq	%fs:40, %rdx	# MEM[(<address-space-1> long unsigned int *)40B], tmp94
	je	.L221	#,
	call	__stack_chk_fail@PLT	#
.L221:
	leave	
	.cfi_def_cfa 7, 8
	ret	
	.cfi_endproc
.LFE6360:
	.size	_ZNSt6chronomiINS_3_V212steady_clockENS_8durationIlSt5ratioILl1ELl1000000000EEEES6_EENSt11common_typeIJT0_T1_EE4typeERKNS_10time_pointIT_S8_EERKNSC_ISD_S9_EE, .-_ZNSt6chronomiINS_3_V212steady_clockENS_8durationIlSt5ratioILl1ELl1000000000EEEES6_EENSt11common_typeIJT0_T1_EE4typeERKNS_10time_pointIT_S8_EERKNSC_ISD_S9_EE
	.section	.text._ZNKSt6chrono8durationIlSt5ratioILl1ELl1000EEE5countEv,"axG",@progbits,_ZNKSt6chrono8durationIlSt5ratioILl1ELl1000EEE5countEv,comdat
	.align 2
	.weak	_ZNKSt6chrono8durationIlSt5ratioILl1ELl1000EEE5countEv
	.type	_ZNKSt6chrono8durationIlSt5ratioILl1ELl1000EEE5countEv, @function
_ZNKSt6chrono8durationIlSt5ratioILl1ELl1000EEE5countEv:
.LFB6366:
	.cfi_startproc
	pushq	%rbp	#
	.cfi_def_cfa_offset 16
	.cfi_offset 6, -16
	movq	%rsp, %rbp	#,
	.cfi_def_cfa_register 6
	movq	%rdi, -8(%rbp)	# this, this
# /usr/include/c++/11.3.0/chrono:538: 	{ return __r; }
	movq	-8(%rbp), %rax	# this, tmp84
	movq	(%rax), %rax	# this_2(D)->__r, _3
# /usr/include/c++/11.3.0/chrono:538: 	{ return __r; }
	popq	%rbp	#
	.cfi_def_cfa 7, 8
	ret	
	.cfi_endproc
.LFE6366:
	.size	_ZNKSt6chrono8durationIlSt5ratioILl1ELl1000EEE5countEv, .-_ZNKSt6chrono8durationIlSt5ratioILl1ELl1000EEE5countEv
	.section	.text._ZSt11__addressofIiEPT_RS0_,"axG",@progbits,_ZSt11__addressofIiEPT_RS0_,comdat
	.weak	_ZSt11__addressofIiEPT_RS0_
	.type	_ZSt11__addressofIiEPT_RS0_, @function
_ZSt11__addressofIiEPT_RS0_:
.LFB6380:
	.cfi_startproc
	pushq	%rbp	#
	.cfi_def_cfa_offset 16
	.cfi_offset 6, -16
	movq	%rsp, %rbp	#,
	.cfi_def_cfa_register 6
	movq	%rdi, -8(%rbp)	# __r, __r
# /usr/include/c++/11.3.0/bits/move.h:50:     { return __builtin_addressof(__r); }
	movq	-8(%rbp), %rax	# __r, _2
# /usr/include/c++/11.3.0/bits/move.h:50:     { return __builtin_addressof(__r); }
	popq	%rbp	#
	.cfi_def_cfa 7, 8
	ret	
	.cfi_endproc
.LFE6380:
	.size	_ZSt11__addressofIiEPT_RS0_, .-_ZSt11__addressofIiEPT_RS0_
	.section	.text._ZNSt14__shared_countILN9__gnu_cxx12_Lock_policyE2EED2Ev,"axG",@progbits,_ZNSt14__shared_countILN9__gnu_cxx12_Lock_policyE2EED5Ev,comdat
	.align 2
	.weak	_ZNSt14__shared_countILN9__gnu_cxx12_Lock_policyE2EED2Ev
	.type	_ZNSt14__shared_countILN9__gnu_cxx12_Lock_policyE2EED2Ev, @function
_ZNSt14__shared_countILN9__gnu_cxx12_Lock_policyE2EED2Ev:
.LFB6398:
	.cfi_startproc
	pushq	%rbp	#
	.cfi_def_cfa_offset 16
	.cfi_offset 6, -16
	movq	%rsp, %rbp	#,
	.cfi_def_cfa_register 6
	subq	$16, %rsp	#,
	movq	%rdi, -8(%rbp)	# this, this
# /usr/include/c++/11.3.0/bits/shared_ptr_base.h:704: 	if (_M_pi != nullptr)
	movq	-8(%rbp), %rax	# this, tmp84
	movq	(%rax), %rax	# this_5(D)->_M_pi, _1
# /usr/include/c++/11.3.0/bits/shared_ptr_base.h:704: 	if (_M_pi != nullptr)
	testq	%rax, %rax	# _1
	je	.L228	#,
# /usr/include/c++/11.3.0/bits/shared_ptr_base.h:705: 	  _M_pi->_M_release();
	movq	-8(%rbp), %rax	# this, tmp85
	movq	(%rax), %rax	# this_5(D)->_M_pi, _2
# /usr/include/c++/11.3.0/bits/shared_ptr_base.h:705: 	  _M_pi->_M_release();
	movq	%rax, %rdi	# _2,
	call	_ZNSt16_Sp_counted_baseILN9__gnu_cxx12_Lock_policyE2EE10_M_releaseEv	#
.L228:
# /usr/include/c++/11.3.0/bits/shared_ptr_base.h:706:       }
	nop	
	leave	
	.cfi_def_cfa 7, 8
	ret	
	.cfi_endproc
.LFE6398:
	.size	_ZNSt14__shared_countILN9__gnu_cxx12_Lock_policyE2EED2Ev, .-_ZNSt14__shared_countILN9__gnu_cxx12_Lock_policyE2EED2Ev
	.weak	_ZNSt14__shared_countILN9__gnu_cxx12_Lock_policyE2EED1Ev
	.set	_ZNSt14__shared_countILN9__gnu_cxx12_Lock_policyE2EED1Ev,_ZNSt14__shared_countILN9__gnu_cxx12_Lock_policyE2EED2Ev
	.section	.text._ZNSt5tupleIJPNSt13__future_base12_Result_baseENS1_8_DeleterEEEC2ILb1ELb1EEEv,"axG",@progbits,_ZNSt5tupleIJPNSt13__future_base12_Result_baseENS1_8_DeleterEEEC5ILb1ELb1EEEv,comdat
	.align 2
	.weak	_ZNSt5tupleIJPNSt13__future_base12_Result_baseENS1_8_DeleterEEEC2ILb1ELb1EEEv
	.type	_ZNSt5tupleIJPNSt13__future_base12_Result_baseENS1_8_DeleterEEEC2ILb1ELb1EEEv, @function
_ZNSt5tupleIJPNSt13__future_base12_Result_baseENS1_8_DeleterEEEC2ILb1ELb1EEEv:
.LFB6412:
	.cfi_startproc
	.cfi_personality 0x9b,DW.ref.__gxx_personality_v0
	.cfi_lsda 0x1b,.LLSDA6412
	pushq	%rbp	#
	.cfi_def_cfa_offset 16
	.cfi_offset 6, -16
	movq	%rsp, %rbp	#,
	.cfi_def_cfa_register 6
	subq	$16, %rsp	#,
	movq	%rdi, -8(%rbp)	# this, this
# /usr/include/c++/11.3.0/tuple:1055: 	: _Inherited() { }
	movq	-8(%rbp), %rax	# this, _1
	movq	%rax, %rdi	# _1,
	call	_ZNSt11_Tuple_implILm0EJPNSt13__future_base12_Result_baseENS1_8_DeleterEEEC2Ev	#
# /usr/include/c++/11.3.0/tuple:1055: 	: _Inherited() { }
	nop	
	leave	
	.cfi_def_cfa 7, 8
	ret	
	.cfi_endproc
.LFE6412:
	.section	.gcc_except_table
.LLSDA6412:
	.byte	0xff
	.byte	0xff
	.byte	0x1
	.uleb128 .LLSDACSE6412-.LLSDACSB6412
.LLSDACSB6412:
.LLSDACSE6412:
	.section	.text._ZNSt5tupleIJPNSt13__future_base12_Result_baseENS1_8_DeleterEEEC2ILb1ELb1EEEv,"axG",@progbits,_ZNSt5tupleIJPNSt13__future_base12_Result_baseENS1_8_DeleterEEEC5ILb1ELb1EEEv,comdat
	.size	_ZNSt5tupleIJPNSt13__future_base12_Result_baseENS1_8_DeleterEEEC2ILb1ELb1EEEv, .-_ZNSt5tupleIJPNSt13__future_base12_Result_baseENS1_8_DeleterEEEC2ILb1ELb1EEEv
	.weak	_ZNSt5tupleIJPNSt13__future_base12_Result_baseENS1_8_DeleterEEEC1ILb1ELb1EEEv
	.set	_ZNSt5tupleIJPNSt13__future_base12_Result_baseENS1_8_DeleterEEEC1ILb1ELb1EEEv,_ZNSt5tupleIJPNSt13__future_base12_Result_baseENS1_8_DeleterEEEC2ILb1ELb1EEEv
	.section	.text._ZNSt15__uniq_ptr_implINSt13__future_base12_Result_baseENS1_8_DeleterEEC2Ev,"axG",@progbits,_ZNSt15__uniq_ptr_implINSt13__future_base12_Result_baseENS1_8_DeleterEEC5Ev,comdat
	.align 2
	.weak	_ZNSt15__uniq_ptr_implINSt13__future_base12_Result_baseENS1_8_DeleterEEC2Ev
	.type	_ZNSt15__uniq_ptr_implINSt13__future_base12_Result_baseENS1_8_DeleterEEC2Ev, @function
_ZNSt15__uniq_ptr_implINSt13__future_base12_Result_baseENS1_8_DeleterEEC2Ev:
.LFB6414:
	.cfi_startproc
	pushq	%rbp	#
	.cfi_def_cfa_offset 16
	.cfi_offset 6, -16
	movq	%rsp, %rbp	#,
	.cfi_def_cfa_register 6
	subq	$16, %rsp	#,
	movq	%rdi, -8(%rbp)	# this, this
# /usr/include/c++/11.3.0/bits/unique_ptr.h:154:       __uniq_ptr_impl() = default;
	movq	-8(%rbp), %rax	# this, _1
	movq	%rax, %rdi	# _1,
	call	_ZNSt5tupleIJPNSt13__future_base12_Result_baseENS1_8_DeleterEEEC1ILb1ELb1EEEv	#
	nop	
	leave	
	.cfi_def_cfa 7, 8
	ret	
	.cfi_endproc
.LFE6414:
	.size	_ZNSt15__uniq_ptr_implINSt13__future_base12_Result_baseENS1_8_DeleterEEC2Ev, .-_ZNSt15__uniq_ptr_implINSt13__future_base12_Result_baseENS1_8_DeleterEEC2Ev
	.weak	_ZNSt15__uniq_ptr_implINSt13__future_base12_Result_baseENS1_8_DeleterEEC1Ev
	.set	_ZNSt15__uniq_ptr_implINSt13__future_base12_Result_baseENS1_8_DeleterEEC1Ev,_ZNSt15__uniq_ptr_implINSt13__future_base12_Result_baseENS1_8_DeleterEEC2Ev
	.section	.text._ZNSt15__uniq_ptr_dataINSt13__future_base12_Result_baseENS1_8_DeleterELb1ELb1EECI2St15__uniq_ptr_implIS1_S2_EEv,"axG",@progbits,_ZNSt15__uniq_ptr_dataINSt13__future_base12_Result_baseENS1_8_DeleterELb1ELb1EECI5St15__uniq_ptr_implIS1_S2_EEv,comdat
	.align 2
	.weak	_ZNSt15__uniq_ptr_dataINSt13__future_base12_Result_baseENS1_8_DeleterELb1ELb1EECI2St15__uniq_ptr_implIS1_S2_EEv
	.type	_ZNSt15__uniq_ptr_dataINSt13__future_base12_Result_baseENS1_8_DeleterELb1ELb1EECI2St15__uniq_ptr_implIS1_S2_EEv, @function
_ZNSt15__uniq_ptr_dataINSt13__future_base12_Result_baseENS1_8_DeleterELb1ELb1EECI2St15__uniq_ptr_implIS1_S2_EEv:
.LFB6416:
	.cfi_startproc
	pushq	%rbp	#
	.cfi_def_cfa_offset 16
	.cfi_offset 6, -16
	movq	%rsp, %rbp	#,
	.cfi_def_cfa_register 6
	subq	$16, %rsp	#,
	movq	%rdi, -8(%rbp)	# this, this
# /usr/include/c++/11.3.0/bits/unique_ptr.h:210:       using __uniq_ptr_impl<_Tp, _Dp>::__uniq_ptr_impl;
	movq	-8(%rbp), %rax	# this, _1
	movq	%rax, %rdi	# _1,
	call	_ZNSt15__uniq_ptr_implINSt13__future_base12_Result_baseENS1_8_DeleterEEC2Ev	#
	nop	
	leave	
	.cfi_def_cfa 7, 8
	ret	
	.cfi_endproc
.LFE6416:
	.size	_ZNSt15__uniq_ptr_dataINSt13__future_base12_Result_baseENS1_8_DeleterELb1ELb1EECI2St15__uniq_ptr_implIS1_S2_EEv, .-_ZNSt15__uniq_ptr_dataINSt13__future_base12_Result_baseENS1_8_DeleterELb1ELb1EECI2St15__uniq_ptr_implIS1_S2_EEv
	.weak	_ZNSt15__uniq_ptr_dataINSt13__future_base12_Result_baseENS1_8_DeleterELb1ELb1EECI1St15__uniq_ptr_implIS1_S2_EEv
	.set	_ZNSt15__uniq_ptr_dataINSt13__future_base12_Result_baseENS1_8_DeleterELb1ELb1EECI1St15__uniq_ptr_implIS1_S2_EEv,_ZNSt15__uniq_ptr_dataINSt13__future_base12_Result_baseENS1_8_DeleterELb1ELb1EECI2St15__uniq_ptr_implIS1_S2_EEv
	.section	.text._ZNSt10unique_ptrINSt13__future_base12_Result_baseENS1_8_DeleterEEC2IS2_vEEv,"axG",@progbits,_ZNSt10unique_ptrINSt13__future_base12_Result_baseENS1_8_DeleterEEC5IS2_vEEv,comdat
	.align 2
	.weak	_ZNSt10unique_ptrINSt13__future_base12_Result_baseENS1_8_DeleterEEC2IS2_vEEv
	.type	_ZNSt10unique_ptrINSt13__future_base12_Result_baseENS1_8_DeleterEEC2IS2_vEEv, @function
_ZNSt10unique_ptrINSt13__future_base12_Result_baseENS1_8_DeleterEEC2IS2_vEEv:
.LFB6418:
	.cfi_startproc
	pushq	%rbp	#
	.cfi_def_cfa_offset 16
	.cfi_offset 6, -16
	movq	%rsp, %rbp	#,
	.cfi_def_cfa_register 6
	subq	$16, %rsp	#,
	movq	%rdi, -8(%rbp)	# this, this
# /usr/include/c++/11.3.0/bits/unique_ptr.h:270: 	: _M_t()
	movq	-8(%rbp), %rax	# this, tmp83
	movq	$0, (%rax)	#, this_3(D)->_M_t
	movq	-8(%rbp), %rax	# this, _1
	movq	%rax, %rdi	# _1,
	call	_ZNSt15__uniq_ptr_dataINSt13__future_base12_Result_baseENS1_8_DeleterELb1ELb1EECI1St15__uniq_ptr_implIS1_S2_EEv	#
# /usr/include/c++/11.3.0/bits/unique_ptr.h:271: 	{ }
	nop	
	leave	
	.cfi_def_cfa 7, 8
	ret	
	.cfi_endproc
.LFE6418:
	.size	_ZNSt10unique_ptrINSt13__future_base12_Result_baseENS1_8_DeleterEEC2IS2_vEEv, .-_ZNSt10unique_ptrINSt13__future_base12_Result_baseENS1_8_DeleterEEC2IS2_vEEv
	.weak	_ZNSt10unique_ptrINSt13__future_base12_Result_baseENS1_8_DeleterEEC1IS2_vEEv
	.set	_ZNSt10unique_ptrINSt13__future_base12_Result_baseENS1_8_DeleterEEC1IS2_vEEv,_ZNSt10unique_ptrINSt13__future_base12_Result_baseENS1_8_DeleterEEC2IS2_vEEv
	.section	.text._ZNSt10unique_ptrINSt13__future_base12_Result_baseENS1_8_DeleterEED2Ev,"axG",@progbits,_ZNSt10unique_ptrINSt13__future_base12_Result_baseENS1_8_DeleterEED5Ev,comdat
	.align 2
	.weak	_ZNSt10unique_ptrINSt13__future_base12_Result_baseENS1_8_DeleterEED2Ev
	.type	_ZNSt10unique_ptrINSt13__future_base12_Result_baseENS1_8_DeleterEED2Ev, @function
_ZNSt10unique_ptrINSt13__future_base12_Result_baseENS1_8_DeleterEED2Ev:
.LFB6421:
	.cfi_startproc
	.cfi_personality 0x9b,DW.ref.__gxx_personality_v0
	.cfi_lsda 0x1b,.LLSDA6421
	pushq	%rbp	#
	.cfi_def_cfa_offset 16
	.cfi_offset 6, -16
	movq	%rsp, %rbp	#,
	.cfi_def_cfa_register 6
	pushq	%rbx	#
	subq	$40, %rsp	#,
	.cfi_offset 3, -24
	movq	%rdi, -40(%rbp)	# this, this
# /usr/include/c++/11.3.0/bits/unique_ptr.h:359: 	auto& __ptr = _M_t._M_ptr();
	movq	-40(%rbp), %rax	# this, _1
	movq	%rax, %rdi	# _1,
	call	_ZNSt15__uniq_ptr_implINSt13__future_base12_Result_baseENS1_8_DeleterEE6_M_ptrEv	#
	movq	%rax, -24(%rbp)	# tmp87, __ptr
# /usr/include/c++/11.3.0/bits/unique_ptr.h:360: 	if (__ptr != nullptr)
	movq	-24(%rbp), %rax	# __ptr, tmp88
	movq	(%rax), %rax	# *__ptr_10, _2
# /usr/include/c++/11.3.0/bits/unique_ptr.h:360: 	if (__ptr != nullptr)
	testq	%rax, %rax	# _2
	je	.L234	#,
# /usr/include/c++/11.3.0/bits/unique_ptr.h:361: 	  get_deleter()(std::move(__ptr));
	movq	-40(%rbp), %rax	# this, tmp89
	movq	%rax, %rdi	# tmp89,
	call	_ZNSt10unique_ptrINSt13__future_base12_Result_baseENS1_8_DeleterEE11get_deleterEv	#
	movq	%rax, %rbx	#, _3
# /usr/include/c++/11.3.0/bits/unique_ptr.h:361: 	  get_deleter()(std::move(__ptr));
	movq	-24(%rbp), %rax	# __ptr, tmp90
	movq	%rax, %rdi	# tmp90,
	call	_ZSt4moveIRPNSt13__future_base12_Result_baseEEONSt16remove_referenceIT_E4typeEOS5_	#
# /usr/include/c++/11.3.0/bits/unique_ptr.h:361: 	  get_deleter()(std::move(__ptr));
	movq	(%rax), %rax	# *_4, _5
	movq	%rax, %rsi	# _5,
	movq	%rbx, %rdi	# _3,
	call	_ZNKSt13__future_base12_Result_base8_DeleterclEPS0_	#
.L234:
# /usr/include/c++/11.3.0/bits/unique_ptr.h:362: 	__ptr = pointer();
	movq	-24(%rbp), %rax	# __ptr, tmp91
	movq	$0, (%rax)	#, *__ptr_10
# /usr/include/c++/11.3.0/bits/unique_ptr.h:363:       }
	nop	
	movq	-8(%rbp), %rbx	#,
	leave	
	.cfi_def_cfa 7, 8
	ret	
	.cfi_endproc
.LFE6421:
	.section	.gcc_except_table
.LLSDA6421:
	.byte	0xff
	.byte	0xff
	.byte	0x1
	.uleb128 .LLSDACSE6421-.LLSDACSB6421
.LLSDACSB6421:
.LLSDACSE6421:
	.section	.text._ZNSt10unique_ptrINSt13__future_base12_Result_baseENS1_8_DeleterEED2Ev,"axG",@progbits,_ZNSt10unique_ptrINSt13__future_base12_Result_baseENS1_8_DeleterEED5Ev,comdat
	.size	_ZNSt10unique_ptrINSt13__future_base12_Result_baseENS1_8_DeleterEED2Ev, .-_ZNSt10unique_ptrINSt13__future_base12_Result_baseENS1_8_DeleterEED2Ev
	.weak	_ZNSt10unique_ptrINSt13__future_base12_Result_baseENS1_8_DeleterEED1Ev
	.set	_ZNSt10unique_ptrINSt13__future_base12_Result_baseENS1_8_DeleterEED1Ev,_ZNSt10unique_ptrINSt13__future_base12_Result_baseENS1_8_DeleterEED2Ev
	.section	.text._ZNSt23__atomic_futex_unsignedILj2147483648EEC2Ej,"axG",@progbits,_ZNSt23__atomic_futex_unsignedILj2147483648EEC5Ej,comdat
	.align 2
	.weak	_ZNSt23__atomic_futex_unsignedILj2147483648EEC2Ej
	.type	_ZNSt23__atomic_futex_unsignedILj2147483648EEC2Ej, @function
_ZNSt23__atomic_futex_unsignedILj2147483648EEC2Ej:
.LFB6424:
	.cfi_startproc
	pushq	%rbp	#
	.cfi_def_cfa_offset 16
	.cfi_offset 6, -16
	movq	%rsp, %rbp	#,
	.cfi_def_cfa_register 6
	subq	$16, %rsp	#,
	movq	%rdi, -8(%rbp)	# this, this
	movl	%esi, -12(%rbp)	# __data, __data
# /usr/include/c++/11.3.0/bits/atomic_futex.h:81:     __atomic_futex_unsigned(unsigned __data) : _M_data(__data)
	movq	-8(%rbp), %rax	# this, _1
	movl	-12(%rbp), %edx	# __data, tmp83
	movl	%edx, %esi	# tmp83,
	movq	%rax, %rdi	# _1,
	call	_ZNSt6atomicIjEC1Ej	#
# /usr/include/c++/11.3.0/bits/atomic_futex.h:82:     { }
	nop	
	leave	
	.cfi_def_cfa 7, 8
	ret	
	.cfi_endproc
.LFE6424:
	.size	_ZNSt23__atomic_futex_unsignedILj2147483648EEC2Ej, .-_ZNSt23__atomic_futex_unsignedILj2147483648EEC2Ej
	.weak	_ZNSt23__atomic_futex_unsignedILj2147483648EEC1Ej
	.set	_ZNSt23__atomic_futex_unsignedILj2147483648EEC1Ej,_ZNSt23__atomic_futex_unsignedILj2147483648EEC2Ej
	.section	.text._ZNKSt10unique_ptrINSt13__future_base12_Result_baseENS1_8_DeleterEEdeEv,"axG",@progbits,_ZNKSt10unique_ptrINSt13__future_base12_Result_baseENS1_8_DeleterEEdeEv,comdat
	.align 2
	.weak	_ZNKSt10unique_ptrINSt13__future_base12_Result_baseENS1_8_DeleterEEdeEv
	.type	_ZNKSt10unique_ptrINSt13__future_base12_Result_baseENS1_8_DeleterEEdeEv, @function
_ZNKSt10unique_ptrINSt13__future_base12_Result_baseENS1_8_DeleterEEdeEv:
.LFB6427:
	.cfi_startproc
	pushq	%rbp	#
	.cfi_def_cfa_offset 16
	.cfi_offset 6, -16
	movq	%rsp, %rbp	#,
	.cfi_def_cfa_register 6
	subq	$16, %rsp	#,
	movq	%rdi, -8(%rbp)	# this, this
# /usr/include/c++/11.3.0/bits/unique_ptr.h:407: 	__glibcxx_assert(get() != pointer());
	movl	$0, %eax	#, iftmp.96_1
	testb	%al, %al	# iftmp.96_1
# /usr/include/c++/11.3.0/bits/unique_ptr.h:408: 	return *get();
	movq	-8(%rbp), %rax	# this, tmp85
	movq	%rax, %rdi	# tmp85,
	call	_ZNKSt10unique_ptrINSt13__future_base12_Result_baseENS1_8_DeleterEE3getEv	#
# /usr/include/c++/11.3.0/bits/unique_ptr.h:409:       }
	leave	
	.cfi_def_cfa 7, 8
	ret	
	.cfi_endproc
.LFE6427:
	.size	_ZNKSt10unique_ptrINSt13__future_base12_Result_baseENS1_8_DeleterEEdeEv, .-_ZNKSt10unique_ptrINSt13__future_base12_Result_baseENS1_8_DeleterEEdeEv
	.section	.text._ZSt11__addressofISt8functionIFSt10unique_ptrINSt13__future_base12_Result_baseENS3_8_DeleterEEvEEEPT_RS8_,"axG",@progbits,_ZSt11__addressofISt8functionIFSt10unique_ptrINSt13__future_base12_Result_baseENS3_8_DeleterEEvEEEPT_RS8_,comdat
	.weak	_ZSt11__addressofISt8functionIFSt10unique_ptrINSt13__future_base12_Result_baseENS3_8_DeleterEEvEEEPT_RS8_
	.type	_ZSt11__addressofISt8functionIFSt10unique_ptrINSt13__future_base12_Result_baseENS3_8_DeleterEEvEEEPT_RS8_, @function
_ZSt11__addressofISt8functionIFSt10unique_ptrINSt13__future_base12_Result_baseENS3_8_DeleterEEvEEEPT_RS8_:
.LFB6428:
	.cfi_startproc
	pushq	%rbp	#
	.cfi_def_cfa_offset 16
	.cfi_offset 6, -16
	movq	%rsp, %rbp	#,
	.cfi_def_cfa_register 6
	movq	%rdi, -8(%rbp)	# __r, __r
# /usr/include/c++/11.3.0/bits/move.h:50:     { return __builtin_addressof(__r); }
	movq	-8(%rbp), %rax	# __r, _2
# /usr/include/c++/11.3.0/bits/move.h:50:     { return __builtin_addressof(__r); }
	popq	%rbp	#
	.cfi_def_cfa 7, 8
	ret	
	.cfi_endproc
.LFE6428:
	.size	_ZSt11__addressofISt8functionIFSt10unique_ptrINSt13__future_base12_Result_baseENS3_8_DeleterEEvEEEPT_RS8_, .-_ZSt11__addressofISt8functionIFSt10unique_ptrINSt13__future_base12_Result_baseENS3_8_DeleterEEvEEEPT_RS8_
	.section	.text._ZSt11__addressofIbEPT_RS0_,"axG",@progbits,_ZSt11__addressofIbEPT_RS0_,comdat
	.weak	_ZSt11__addressofIbEPT_RS0_
	.type	_ZSt11__addressofIbEPT_RS0_, @function
_ZSt11__addressofIbEPT_RS0_:
.LFB6429:
	.cfi_startproc
	pushq	%rbp	#
	.cfi_def_cfa_offset 16
	.cfi_offset 6, -16
	movq	%rsp, %rbp	#,
	.cfi_def_cfa_register 6
	movq	%rdi, -8(%rbp)	# __r, __r
# /usr/include/c++/11.3.0/bits/move.h:50:     { return __builtin_addressof(__r); }
	movq	-8(%rbp), %rax	# __r, _2
# /usr/include/c++/11.3.0/bits/move.h:50:     { return __builtin_addressof(__r); }
	popq	%rbp	#
	.cfi_def_cfa 7, 8
	ret	
	.cfi_endproc
.LFE6429:
	.size	_ZSt11__addressofIbEPT_RS0_, .-_ZSt11__addressofIbEPT_RS0_
	.section	.text._ZZSt9call_onceIMNSt13__future_base13_State_baseV2EFvPSt8functionIFSt10unique_ptrINS0_12_Result_baseENS4_8_DeleterEEvEEPbEJPS1_S9_SA_EEvRSt9once_flagOT_DpOT0_ENKUlvE_clEv,"axG",@progbits,_ZZSt9call_onceIMNSt13__future_base13_State_baseV2EFvPSt8functionIFSt10unique_ptrINS0_12_Result_baseENS4_8_DeleterEEvEEPbEJPS1_S9_SA_EEvRSt9once_flagOT_DpOT0_ENKUlvE_clEv,comdat
	.align 2
	.weak	_ZZSt9call_onceIMNSt13__future_base13_State_baseV2EFvPSt8functionIFSt10unique_ptrINS0_12_Result_baseENS4_8_DeleterEEvEEPbEJPS1_S9_SA_EEvRSt9once_flagOT_DpOT0_ENKUlvE_clEv
	.type	_ZZSt9call_onceIMNSt13__future_base13_State_baseV2EFvPSt8functionIFSt10unique_ptrINS0_12_Result_baseENS4_8_DeleterEEvEEPbEJPS1_S9_SA_EEvRSt9once_flagOT_DpOT0_ENKUlvE_clEv, @function
_ZZSt9call_onceIMNSt13__future_base13_State_baseV2EFvPSt8functionIFSt10unique_ptrINS0_12_Result_baseENS4_8_DeleterEEvEEPbEJPS1_S9_SA_EEvRSt9once_flagOT_DpOT0_ENKUlvE_clEv:
.LFB6431:
	.cfi_startproc
	pushq	%rbp	#
	.cfi_def_cfa_offset 16
	.cfi_offset 6, -16
	movq	%rsp, %rbp	#,
	.cfi_def_cfa_register 6
	pushq	%r13	#
	pushq	%r12	#
	pushq	%rbx	#
	subq	$24, %rsp	#,
	.cfi_offset 13, -24
	.cfi_offset 12, -32
	.cfi_offset 3, -40
	movq	%rdi, -40(%rbp)	# __closure, __closure
# /usr/include/c++/11.3.0/mutex:777: 			std::forward<_Args>(__args)...);
	movq	-40(%rbp), %rax	# __closure, tmp90
	movq	24(%rax), %rax	# __closure_10(D)->____args#2, _1
# /usr/include/c++/11.3.0/mutex:776: 	  std::__invoke(std::forward<_Callable>(__f),
	movq	%rax, %rdi	# _1,
	call	_ZSt7forwardIPbEOT_RNSt16remove_referenceIS1_E4typeE	#
	movq	%rax, %r13	#, _2
# /usr/include/c++/11.3.0/mutex:777: 			std::forward<_Args>(__args)...);
	movq	-40(%rbp), %rax	# __closure, tmp91
	movq	16(%rax), %rax	# __closure_10(D)->____args#1, _3
# /usr/include/c++/11.3.0/mutex:776: 	  std::__invoke(std::forward<_Callable>(__f),
	movq	%rax, %rdi	# _3,
	call	_ZSt7forwardIPSt8functionIFSt10unique_ptrINSt13__future_base12_Result_baseENS3_8_DeleterEEvEEEOT_RNSt16remove_referenceIS9_E4typeE	#
	movq	%rax, %r12	#, _4
# /usr/include/c++/11.3.0/mutex:777: 			std::forward<_Args>(__args)...);
	movq	-40(%rbp), %rax	# __closure, tmp92
	movq	8(%rax), %rax	# __closure_10(D)->____args#0, _5
# /usr/include/c++/11.3.0/mutex:776: 	  std::__invoke(std::forward<_Callable>(__f),
	movq	%rax, %rdi	# _5,
	call	_ZSt7forwardIPNSt13__future_base13_State_baseV2EEOT_RNSt16remove_referenceIS3_E4typeE	#
	movq	%rax, %rbx	#, _6
# /usr/include/c++/11.3.0/mutex:775:       auto __callable = [&] {
	movq	-40(%rbp), %rax	# __closure, tmp93
	movq	(%rax), %rax	# __closure_10(D)->____f, _7
# /usr/include/c++/11.3.0/mutex:776: 	  std::__invoke(std::forward<_Callable>(__f),
	movq	%rax, %rdi	# _7,
	call	_ZSt7forwardIMNSt13__future_base13_State_baseV2EFvPSt8functionIFSt10unique_ptrINS0_12_Result_baseENS4_8_DeleterEEvEEPbEEOT_RNSt16remove_referenceISD_E4typeE	#
	movq	%r13, %rcx	# _2,
	movq	%r12, %rdx	# _4,
	movq	%rbx, %rsi	# _6,
	movq	%rax, %rdi	# _8,
	call	_ZSt8__invokeIMNSt13__future_base13_State_baseV2EFvPSt8functionIFSt10unique_ptrINS0_12_Result_baseENS4_8_DeleterEEvEEPbEJPS1_S9_SA_EENSt15__invoke_resultIT_JDpT0_EE4typeEOSF_DpOSG_	#
# /usr/include/c++/11.3.0/mutex:775:       auto __callable = [&] {
	nop	
	addq	$24, %rsp	#,
	popq	%rbx	#
	popq	%r12	#
	popq	%r13	#
	popq	%rbp	#
	.cfi_def_cfa 7, 8
	ret	
	.cfi_endproc
.LFE6431:
	.size	_ZZSt9call_onceIMNSt13__future_base13_State_baseV2EFvPSt8functionIFSt10unique_ptrINS0_12_Result_baseENS4_8_DeleterEEvEEPbEJPS1_S9_SA_EEvRSt9once_flagOT_DpOT0_ENKUlvE_clEv, .-_ZZSt9call_onceIMNSt13__future_base13_State_baseV2EFvPSt8functionIFSt10unique_ptrINS0_12_Result_baseENS4_8_DeleterEEvEEPbEJPS1_S9_SA_EEvRSt9once_flagOT_DpOT0_ENKUlvE_clEv
	.section	.text._ZSt9call_onceIMNSt13__future_base13_State_baseV2EFvPSt8functionIFSt10unique_ptrINS0_12_Result_baseENS4_8_DeleterEEvEEPbEJPS1_S9_SA_EEvRSt9once_flagOT_DpOT0_,"axG",@progbits,_ZSt9call_onceIMNSt13__future_base13_State_baseV2EFvPSt8functionIFSt10unique_ptrINS0_12_Result_baseENS4_8_DeleterEEvEEPbEJPS1_S9_SA_EEvRSt9once_flagOT_DpOT0_,comdat
	.weak	_ZSt9call_onceIMNSt13__future_base13_State_baseV2EFvPSt8functionIFSt10unique_ptrINS0_12_Result_baseENS4_8_DeleterEEvEEPbEJPS1_S9_SA_EEvRSt9once_flagOT_DpOT0_
	.type	_ZSt9call_onceIMNSt13__future_base13_State_baseV2EFvPSt8functionIFSt10unique_ptrINS0_12_Result_baseENS4_8_DeleterEEvEEPbEJPS1_S9_SA_EEvRSt9once_flagOT_DpOT0_, @function
_ZSt9call_onceIMNSt13__future_base13_State_baseV2EFvPSt8functionIFSt10unique_ptrINS0_12_Result_baseENS4_8_DeleterEEvEEPbEJPS1_S9_SA_EEvRSt9once_flagOT_DpOT0_:
.LFB6430:
	.cfi_startproc
	.cfi_personality 0x9b,DW.ref.__gxx_personality_v0
	.cfi_lsda 0x1b,.LLSDA6430
	pushq	%rbp	#
	.cfi_def_cfa_offset 16
	.cfi_offset 6, -16
	movq	%rsp, %rbp	#,
	.cfi_def_cfa_register 6
	pushq	%rbx	#
	subq	$120, %rsp	#,
	.cfi_offset 3, -24
	movq	%rdi, -88(%rbp)	# __once, __once
	movq	%rsi, -96(%rbp)	# __f, __f
	movq	%rdx, -104(%rbp)	# __args#0, __args#0
	movq	%rcx, -112(%rbp)	# __args#1, __args#1
	movq	%r8, -120(%rbp)	# __args#2, __args#2
# /usr/include/c++/11.3.0/mutex:772:     call_once(once_flag& __once, _Callable&& __f, _Args&&... __args)
	movq	%fs:40, %rax	# MEM[(<address-space-1> long unsigned int *)40B], tmp97
	movq	%rax, -24(%rbp)	# tmp97, D.192855
	xorl	%eax, %eax	# tmp97
# /usr/include/c++/11.3.0/mutex:775:       auto __callable = [&] {
	movq	-96(%rbp), %rax	# __f, tmp85
	movq	%rax, -64(%rbp)	# tmp85, __callable.____f
	movq	-104(%rbp), %rax	# __args#0, tmp86
	movq	%rax, -56(%rbp)	# tmp86, __callable.____args#0
	movq	-112(%rbp), %rax	# __args#1, tmp87
	movq	%rax, -48(%rbp)	# tmp87, __callable.____args#1
	movq	-120(%rbp), %rax	# __args#2, tmp88
	movq	%rax, -40(%rbp)	# tmp88, __callable.____args#2
# /usr/include/c++/11.3.0/mutex:780:       once_flag::_Prepare_execution __exec(__callable);
	leaq	-64(%rbp), %rdx	#, tmp89
	leaq	-69(%rbp), %rax	#, tmp90
	movq	%rdx, %rsi	# tmp89,
	movq	%rax, %rdi	# tmp90,
	call	_ZNSt9once_flag18_Prepare_executionC1IZSt9call_onceIMNSt13__future_base13_State_baseV2EFvPSt8functionIFSt10unique_ptrINS3_12_Result_baseENS7_8_DeleterEEvEEPbEJPS4_SC_SD_EEvRS_OT_DpOT0_EUlvE_EERSI_	#
# /usr/include/c++/11.3.0/mutex:783:       if (int __e = __gthread_once(&__once._M_once, &__once_proxy))
	movq	-88(%rbp), %rax	# __once, _1
	movq	__once_proxy@GOTPCREL(%rip), %rdx	#, tmp92
	movq	%rdx, %rsi	# tmp91,
	movq	%rax, %rdi	# _1,
.LEHB9:
	call	_ZL14__gthread_oncePiPFvvE	#
	movl	%eax, -68(%rbp)	# _15, __e
# /usr/include/c++/11.3.0/mutex:783:       if (int __e = __gthread_once(&__once._M_once, &__once_proxy))
	cmpl	$0, -68(%rbp)	#, __e
	je	.L245	#,
# /usr/include/c++/11.3.0/mutex:784: 	__throw_system_error(__e);
	movl	-68(%rbp), %eax	# __e, tmp93
	movl	%eax, %edi	# tmp93,
	call	_ZSt20__throw_system_errori@PLT	#
.LEHE9:
.L245:
# /usr/include/c++/11.3.0/mutex:785:     }
	leaq	-69(%rbp), %rax	#, tmp94
	movq	%rax, %rdi	# tmp94,
	call	_ZNSt9once_flag18_Prepare_executionD1Ev	#
	movq	-24(%rbp), %rax	# D.192855, tmp98
	subq	%fs:40, %rax	# MEM[(<address-space-1> long unsigned int *)40B], tmp98
	je	.L247	#,
	jmp	.L249	#
.L248:
	movq	%rax, %rbx	#, tmp96
	leaq	-69(%rbp), %rax	#, tmp95
	movq	%rax, %rdi	# tmp95,
	call	_ZNSt9once_flag18_Prepare_executionD1Ev	#
	movq	%rbx, %rax	# tmp96, D.192854
	movq	%rax, %rdi	# D.192854,
.LEHB10:
	call	_Unwind_Resume@PLT	#
.LEHE10:
.L249:
	call	__stack_chk_fail@PLT	#
.L247:
	movq	-8(%rbp), %rbx	#,
	leave	
	.cfi_def_cfa 7, 8
	ret	
	.cfi_endproc
.LFE6430:
	.section	.gcc_except_table
.LLSDA6430:
	.byte	0xff
	.byte	0xff
	.byte	0x1
	.uleb128 .LLSDACSE6430-.LLSDACSB6430
.LLSDACSB6430:
	.uleb128 .LEHB9-.LFB6430
	.uleb128 .LEHE9-.LEHB9
	.uleb128 .L248-.LFB6430
	.uleb128 0
	.uleb128 .LEHB10-.LFB6430
	.uleb128 .LEHE10-.LEHB10
	.uleb128 0
	.uleb128 0
.LLSDACSE6430:
	.section	.text._ZSt9call_onceIMNSt13__future_base13_State_baseV2EFvPSt8functionIFSt10unique_ptrINS0_12_Result_baseENS4_8_DeleterEEvEEPbEJPS1_S9_SA_EEvRSt9once_flagOT_DpOT0_,"axG",@progbits,_ZSt9call_onceIMNSt13__future_base13_State_baseV2EFvPSt8functionIFSt10unique_ptrINS0_12_Result_baseENS4_8_DeleterEEvEEPbEJPS1_S9_SA_EEvRSt9once_flagOT_DpOT0_,comdat
	.size	_ZSt9call_onceIMNSt13__future_base13_State_baseV2EFvPSt8functionIFSt10unique_ptrINS0_12_Result_baseENS4_8_DeleterEEvEEPbEJPS1_S9_SA_EEvRSt9once_flagOT_DpOT0_, .-_ZSt9call_onceIMNSt13__future_base13_State_baseV2EFvPSt8functionIFSt10unique_ptrINS0_12_Result_baseENS4_8_DeleterEEvEEPbEJPS1_S9_SA_EEvRSt9once_flagOT_DpOT0_
	.section	.text._ZNKSt10unique_ptrINSt13__future_base12_Result_baseENS1_8_DeleterEEcvbEv,"axG",@progbits,_ZNKSt10unique_ptrINSt13__future_base12_Result_baseENS1_8_DeleterEEcvbEv,comdat
	.align 2
	.weak	_ZNKSt10unique_ptrINSt13__future_base12_Result_baseENS1_8_DeleterEEcvbEv
	.type	_ZNKSt10unique_ptrINSt13__future_base12_Result_baseENS1_8_DeleterEEcvbEv, @function
_ZNKSt10unique_ptrINSt13__future_base12_Result_baseENS1_8_DeleterEEcvbEv:
.LFB6453:
	.cfi_startproc
	pushq	%rbp	#
	.cfi_def_cfa_offset 16
	.cfi_offset 6, -16
	movq	%rsp, %rbp	#,
	.cfi_def_cfa_register 6
	subq	$16, %rsp	#,
	movq	%rdi, -8(%rbp)	# this, this
# /usr/include/c++/11.3.0/bits/unique_ptr.h:436:       { return get() == pointer() ? false : true; }
	movq	-8(%rbp), %rax	# this, tmp85
	movq	%rax, %rdi	# tmp85,
	call	_ZNKSt10unique_ptrINSt13__future_base12_Result_baseENS1_8_DeleterEE3getEv	#
# /usr/include/c++/11.3.0/bits/unique_ptr.h:436:       { return get() == pointer() ? false : true; }
	testq	%rax, %rax	# _1
	setne	%al	#, _5
# /usr/include/c++/11.3.0/bits/unique_ptr.h:436:       { return get() == pointer() ? false : true; }
	leave	
	.cfi_def_cfa 7, 8
	ret	
	.cfi_endproc
.LFE6453:
	.size	_ZNKSt10unique_ptrINSt13__future_base12_Result_baseENS1_8_DeleterEEcvbEv, .-_ZNKSt10unique_ptrINSt13__future_base12_Result_baseENS1_8_DeleterEEcvbEv
	.section	.text._ZNKSt10unique_ptrINSt13__future_base12_Result_baseENS1_8_DeleterEEptEv,"axG",@progbits,_ZNKSt10unique_ptrINSt13__future_base12_Result_baseENS1_8_DeleterEEptEv,comdat
	.align 2
	.weak	_ZNKSt10unique_ptrINSt13__future_base12_Result_baseENS1_8_DeleterEEptEv
	.type	_ZNKSt10unique_ptrINSt13__future_base12_Result_baseENS1_8_DeleterEEptEv, @function
_ZNKSt10unique_ptrINSt13__future_base12_Result_baseENS1_8_DeleterEEptEv:
.LFB6454:
	.cfi_startproc
	pushq	%rbp	#
	.cfi_def_cfa_offset 16
	.cfi_offset 6, -16
	movq	%rsp, %rbp	#,
	.cfi_def_cfa_register 6
	subq	$16, %rsp	#,
	movq	%rdi, -8(%rbp)	# this, this
# /usr/include/c++/11.3.0/bits/unique_ptr.h:416: 	return get();
	movq	-8(%rbp), %rax	# this, tmp84
	movq	%rax, %rdi	# tmp84,
	call	_ZNKSt10unique_ptrINSt13__future_base12_Result_baseENS1_8_DeleterEE3getEv	#
# /usr/include/c++/11.3.0/bits/unique_ptr.h:417:       }
	leave	
	.cfi_def_cfa 7, 8
	ret	
	.cfi_endproc
.LFE6454:
	.size	_ZNKSt10unique_ptrINSt13__future_base12_Result_baseENS1_8_DeleterEEptEv, .-_ZNKSt10unique_ptrINSt13__future_base12_Result_baseENS1_8_DeleterEEptEv
	.section	.text._ZNSt12future_errorC2ERKS_,"axG",@progbits,_ZNSt12future_errorC5ERKS_,comdat
	.align 2
	.weak	_ZNSt12future_errorC2ERKS_
	.type	_ZNSt12future_errorC2ERKS_, @function
_ZNSt12future_errorC2ERKS_:
.LFB6457:
	.cfi_startproc
	pushq	%rbp	#
	.cfi_def_cfa_offset 16
	.cfi_offset 6, -16
	movq	%rsp, %rbp	#,
	.cfi_def_cfa_register 6
	subq	$16, %rsp	#,
	movq	%rdi, -8(%rbp)	# this, this
	movq	%rsi, -16(%rbp)	# D.94275, D.94275
# /usr/include/c++/11.3.0/future:95:   class future_error : public logic_error
	movq	-8(%rbp), %rax	# this, _1
	movq	-16(%rbp), %rdx	# D.94275, _2
	movq	%rdx, %rsi	# _2,
	movq	%rax, %rdi	# _1,
	call	_ZNSt11logic_errorC2ERKS_@PLT	#
	leaq	16+_ZTVSt12future_error(%rip), %rdx	#, _3
	movq	-8(%rbp), %rax	# this, tmp86
	movq	%rdx, (%rax)	# _3, this_6(D)->D.94259.D.60206._vptr.exception
	movq	-8(%rbp), %rcx	# this, tmp87
	movq	-16(%rbp), %rax	# D.94275, tmp88
	movq	24(%rax), %rdx	# _8(D)->_M_code,
	movq	16(%rax), %rax	# _8(D)->_M_code, tmp89
	movq	%rax, 16(%rcx)	# tmp89, this_6(D)->_M_code
	movq	%rdx, 24(%rcx)	#, this_6(D)->_M_code
	nop	
	leave	
	.cfi_def_cfa 7, 8
	ret	
	.cfi_endproc
.LFE6457:
	.size	_ZNSt12future_errorC2ERKS_, .-_ZNSt12future_errorC2ERKS_
	.weak	_ZNSt12future_errorC1ERKS_
	.set	_ZNSt12future_errorC1ERKS_,_ZNSt12future_errorC2ERKS_
	.section	.text._ZSt18make_exception_ptrISt12future_errorENSt15__exception_ptr13exception_ptrET_,"axG",@progbits,_ZSt18make_exception_ptrISt12future_errorENSt15__exception_ptr13exception_ptrET_,comdat
	.weak	_ZSt18make_exception_ptrISt12future_errorENSt15__exception_ptr13exception_ptrET_
	.type	_ZSt18make_exception_ptrISt12future_errorENSt15__exception_ptr13exception_ptrET_, @function
_ZSt18make_exception_ptrISt12future_errorENSt15__exception_ptr13exception_ptrET_:
.LFB6455:
	.cfi_startproc
	pushq	%rbp	#
	.cfi_def_cfa_offset 16
	.cfi_offset 6, -16
	movq	%rsp, %rbp	#,
	.cfi_def_cfa_register 6
	pushq	%rbx	#
	subq	$40, %rsp	#,
	.cfi_offset 3, -24
	movq	%rdi, -40(%rbp)	# .result_ptr, .result_ptr
	movq	%rsi, -48(%rbp)	# __ex, __ex
# /usr/include/c++/11.3.0/bits/exception_ptr.h:243:       void* __e = __cxxabiv1::__cxa_allocate_exception(sizeof(_Ex));
	movl	$32, %edi	#,
	call	__cxa_allocate_exception@PLT	#
	movq	%rax, -24(%rbp)	# tmp86, __e
# /usr/include/c++/11.3.0/bits/exception_ptr.h:244:       (void) __cxxabiv1::__cxa_init_primary_exception(
	movq	-24(%rbp), %rax	# __e, tmp87
	leaq	_ZNSt15__exception_ptr12__dest_thunkISt12future_errorEEvPv(%rip), %rdx	#, tmp88
	leaq	_ZTISt12future_error(%rip), %rcx	#, tmp89
	movq	%rcx, %rsi	# tmp89,
	movq	%rax, %rdi	# tmp87,
	call	__cxa_init_primary_exception@PLT	#
# /usr/include/c++/11.3.0/bits/exception_ptr.h:249: 	  ::new (__e) _Ex2(std::forward<_Ex>(__ex));
	movq	-48(%rbp), %rax	# __ex, tmp90
	movq	%rax, %rdi	# tmp90,
	call	_ZSt7forwardISt12future_errorEOT_RNSt16remove_referenceIS1_E4typeE	#
	movq	%rax, %rbx	#, _8
# /usr/include/c++/11.3.0/bits/exception_ptr.h:249: 	  ::new (__e) _Ex2(std::forward<_Ex>(__ex));
	movq	-24(%rbp), %rax	# __e, _9
# /usr/include/c++/11.3.0/bits/exception_ptr.h:249: 	  ::new (__e) _Ex2(std::forward<_Ex>(__ex));
	movq	%rax, %rsi	# _9,
	movl	$32, %edi	#,
	call	_ZnwmPv	#
	movq	%rbx, %rsi	# _8,
	movq	%rax, %rdi	# _11,
	call	_ZNSt12future_errorC1ERKS_	#
# /usr/include/c++/11.3.0/bits/exception_ptr.h:250:           return exception_ptr(__e);
	movq	-24(%rbp), %rdx	# __e, tmp91
	movq	-40(%rbp), %rax	# <retval>, tmp92
	movq	%rdx, %rsi	# tmp91,
	movq	%rax, %rdi	# tmp92,
	call	_ZNSt15__exception_ptr13exception_ptrC1EPv@PLT	#
# /usr/include/c++/11.3.0/bits/exception_ptr.h:269:     }
	movq	-40(%rbp), %rax	# <retval>,
	movq	-8(%rbp), %rbx	#,
	leave	
	.cfi_def_cfa 7, 8
	ret	
	.cfi_endproc
.LFE6455:
	.size	_ZSt18make_exception_ptrISt12future_errorENSt15__exception_ptr13exception_ptrET_, .-_ZSt18make_exception_ptrISt12future_errorENSt15__exception_ptr13exception_ptrET_
	.section	.text._ZNSt10unique_ptrINSt13__future_base12_Result_baseENS1_8_DeleterEE4swapERS3_,"axG",@progbits,_ZNSt10unique_ptrINSt13__future_base12_Result_baseENS1_8_DeleterEE4swapERS3_,comdat
	.align 2
	.weak	_ZNSt10unique_ptrINSt13__future_base12_Result_baseENS1_8_DeleterEE4swapERS3_
	.type	_ZNSt10unique_ptrINSt13__future_base12_Result_baseENS1_8_DeleterEE4swapERS3_, @function
_ZNSt10unique_ptrINSt13__future_base12_Result_baseENS1_8_DeleterEE4swapERS3_:
.LFB6459:
	.cfi_startproc
	pushq	%rbp	#
	.cfi_def_cfa_offset 16
	.cfi_offset 6, -16
	movq	%rsp, %rbp	#,
	.cfi_def_cfa_register 6
	subq	$16, %rsp	#,
	movq	%rdi, -8(%rbp)	# this, this
	movq	%rsi, -16(%rbp)	# __u, __u
# /usr/include/c++/11.3.0/bits/unique_ptr.h:464: 	_M_t.swap(__u._M_t);
	movq	-8(%rbp), %rax	# this, _1
	movq	-16(%rbp), %rdx	# __u, _2
	movq	%rdx, %rsi	# _2,
	movq	%rax, %rdi	# _1,
	call	_ZNSt15__uniq_ptr_implINSt13__future_base12_Result_baseENS1_8_DeleterEE4swapERS3_	#
# /usr/include/c++/11.3.0/bits/unique_ptr.h:465:       }
	nop	
	leave	
	.cfi_def_cfa 7, 8
	ret	
	.cfi_endproc
.LFE6459:
	.size	_ZNSt10unique_ptrINSt13__future_base12_Result_baseENS1_8_DeleterEE4swapERS3_, .-_ZNSt10unique_ptrINSt13__future_base12_Result_baseENS1_8_DeleterEE4swapERS3_
	.section	.text._ZNKSt8functionIFSt10unique_ptrINSt13__future_base12_Result_baseENS2_8_DeleterEEvEEclEv,"axG",@progbits,_ZNKSt8functionIFSt10unique_ptrINSt13__future_base12_Result_baseENS2_8_DeleterEEvEEclEv,comdat
	.align 2
	.weak	_ZNKSt8functionIFSt10unique_ptrINSt13__future_base12_Result_baseENS2_8_DeleterEEvEEclEv
	.type	_ZNKSt8functionIFSt10unique_ptrINSt13__future_base12_Result_baseENS2_8_DeleterEEvEEclEv, @function
_ZNKSt8functionIFSt10unique_ptrINSt13__future_base12_Result_baseENS2_8_DeleterEEvEEclEv:
.LFB6460:
	.cfi_startproc
	pushq	%rbp	#
	.cfi_def_cfa_offset 16
	.cfi_offset 6, -16
	movq	%rsp, %rbp	#,
	.cfi_def_cfa_register 6
	subq	$32, %rsp	#,
	movq	%rdi, -24(%rbp)	# .result_ptr, .result_ptr
	movq	%rsi, -32(%rbp)	# this, this
# /usr/include/c++/11.3.0/bits/std_function.h:586:       operator()(_ArgTypes... __args) const
	movq	%fs:40, %rax	# MEM[(<address-space-1> long unsigned int *)40B], tmp88
	movq	%rax, -8(%rbp)	# tmp88, D.192857
	xorl	%eax, %eax	# tmp88
# /usr/include/c++/11.3.0/bits/std_function.h:588: 	if (_M_empty())
	movq	-32(%rbp), %rax	# this, _1
	movq	%rax, %rdi	# _1,
	call	_ZNKSt14_Function_base8_M_emptyEv	#
# /usr/include/c++/11.3.0/bits/std_function.h:588: 	if (_M_empty())
	testb	%al, %al	# retval.30_7
	je	.L259	#,
# /usr/include/c++/11.3.0/bits/std_function.h:589: 	  __throw_bad_function_call();
	call	_ZSt25__throw_bad_function_callv@PLT	#
.L259:
# /usr/include/c++/11.3.0/bits/std_function.h:590: 	return _M_invoker(_M_functor, std::forward<_ArgTypes>(__args)...);
	movq	-32(%rbp), %rax	# this, tmp86
	movq	24(%rax), %rcx	# this_4(D)->_M_invoker, _2
# /usr/include/c++/11.3.0/bits/std_function.h:590: 	return _M_invoker(_M_functor, std::forward<_ArgTypes>(__args)...);
	movq	-32(%rbp), %rdx	# this, _3
# /usr/include/c++/11.3.0/bits/std_function.h:590: 	return _M_invoker(_M_functor, std::forward<_ArgTypes>(__args)...);
	movq	-24(%rbp), %rax	# <retval>, tmp87
	movq	%rdx, %rsi	# _3,
	movq	%rax, %rdi	# tmp87,
	call	*%rcx	# _2
# /usr/include/c++/11.3.0/bits/std_function.h:591:       }
	movq	-8(%rbp), %rax	# D.192857, tmp89
	subq	%fs:40, %rax	# MEM[(<address-space-1> long unsigned int *)40B], tmp89
	je	.L261	#,
	call	__stack_chk_fail@PLT	#
.L261:
	movq	-24(%rbp), %rax	# <retval>,
	leave	
	.cfi_def_cfa 7, 8
	ret	
	.cfi_endproc
.LFE6460:
	.size	_ZNKSt8functionIFSt10unique_ptrINSt13__future_base12_Result_baseENS2_8_DeleterEEvEEclEv, .-_ZNKSt8functionIFSt10unique_ptrINSt13__future_base12_Result_baseENS2_8_DeleterEEvEEclEv
	.section	.text._ZNSt12__shared_ptrINSt13__future_base13_State_baseV2ELN9__gnu_cxx12_Lock_policyE2EEC2ERKS4_,"axG",@progbits,_ZNSt12__shared_ptrINSt13__future_base13_State_baseV2ELN9__gnu_cxx12_Lock_policyE2EEC5ERKS4_,comdat
	.align 2
	.weak	_ZNSt12__shared_ptrINSt13__future_base13_State_baseV2ELN9__gnu_cxx12_Lock_policyE2EEC2ERKS4_
	.type	_ZNSt12__shared_ptrINSt13__future_base13_State_baseV2ELN9__gnu_cxx12_Lock_policyE2EEC2ERKS4_, @function
_ZNSt12__shared_ptrINSt13__future_base13_State_baseV2ELN9__gnu_cxx12_Lock_policyE2EEC2ERKS4_:
.LFB6464:
	.cfi_startproc
	pushq	%rbp	#
	.cfi_def_cfa_offset 16
	.cfi_offset 6, -16
	movq	%rsp, %rbp	#,
	.cfi_def_cfa_register 6
	subq	$16, %rsp	#,
	movq	%rdi, -8(%rbp)	# this, this
	movq	%rsi, -16(%rbp)	# D.102833, D.102833
# /usr/include/c++/11.3.0/bits/shared_ptr_base.h:1152:       __shared_ptr(const __shared_ptr&) noexcept = default;
	movq	-16(%rbp), %rax	# D.102833, tmp86
	movq	(%rax), %rdx	# _8(D)->_M_ptr, _1
	movq	-8(%rbp), %rax	# this, tmp87
	movq	%rdx, (%rax)	# _1, this_6(D)->_M_ptr
	movq	-8(%rbp), %rax	# this, tmp88
	addq	$8, %rax	#, _2
	movq	-16(%rbp), %rdx	# D.102833, tmp89
	addq	$8, %rdx	#, _3
	movq	%rdx, %rsi	# _3,
	movq	%rax, %rdi	# _2,
	call	_ZNSt14__shared_countILN9__gnu_cxx12_Lock_policyE2EEC1ERKS2_	#
	nop	
	leave	
	.cfi_def_cfa 7, 8
	ret	
	.cfi_endproc
.LFE6464:
	.size	_ZNSt12__shared_ptrINSt13__future_base13_State_baseV2ELN9__gnu_cxx12_Lock_policyE2EEC2ERKS4_, .-_ZNSt12__shared_ptrINSt13__future_base13_State_baseV2ELN9__gnu_cxx12_Lock_policyE2EEC2ERKS4_
	.weak	_ZNSt12__shared_ptrINSt13__future_base13_State_baseV2ELN9__gnu_cxx12_Lock_policyE2EEC1ERKS4_
	.set	_ZNSt12__shared_ptrINSt13__future_base13_State_baseV2ELN9__gnu_cxx12_Lock_policyE2EEC1ERKS4_,_ZNSt12__shared_ptrINSt13__future_base13_State_baseV2ELN9__gnu_cxx12_Lock_policyE2EEC2ERKS4_
	.section	.text._ZNSt10shared_ptrINSt13__future_base13_State_baseV2EEC2ERKS2_,"axG",@progbits,_ZNSt10shared_ptrINSt13__future_base13_State_baseV2EEC5ERKS2_,comdat
	.align 2
	.weak	_ZNSt10shared_ptrINSt13__future_base13_State_baseV2EEC2ERKS2_
	.type	_ZNSt10shared_ptrINSt13__future_base13_State_baseV2EEC2ERKS2_, @function
_ZNSt10shared_ptrINSt13__future_base13_State_baseV2EEC2ERKS2_:
.LFB6466:
	.cfi_startproc
	pushq	%rbp	#
	.cfi_def_cfa_offset 16
	.cfi_offset 6, -16
	movq	%rsp, %rbp	#,
	.cfi_def_cfa_register 6
	subq	$16, %rsp	#,
	movq	%rdi, -8(%rbp)	# this, this
	movq	%rsi, -16(%rbp)	# D.103333, D.103333
# /usr/include/c++/11.3.0/bits/shared_ptr.h:150:       shared_ptr(const shared_ptr&) noexcept = default; ///< Copy constructor
	movq	-8(%rbp), %rax	# this, _1
	movq	-16(%rbp), %rdx	# D.103333, _2
	movq	%rdx, %rsi	# _2,
	movq	%rax, %rdi	# _1,
	call	_ZNSt12__shared_ptrINSt13__future_base13_State_baseV2ELN9__gnu_cxx12_Lock_policyE2EEC2ERKS4_	#
	nop	
	leave	
	.cfi_def_cfa 7, 8
	ret	
	.cfi_endproc
.LFE6466:
	.size	_ZNSt10shared_ptrINSt13__future_base13_State_baseV2EEC2ERKS2_, .-_ZNSt10shared_ptrINSt13__future_base13_State_baseV2EEC2ERKS2_
	.weak	_ZNSt10shared_ptrINSt13__future_base13_State_baseV2EEC1ERKS2_
	.set	_ZNSt10shared_ptrINSt13__future_base13_State_baseV2EEC1ERKS2_,_ZNSt10shared_ptrINSt13__future_base13_State_baseV2EEC2ERKS2_
	.section	.text._ZSt4moveIRSt10shared_ptrINSt13__future_base13_State_baseV2EEEONSt16remove_referenceIT_E4typeEOS6_,"axG",@progbits,_ZSt4moveIRSt10shared_ptrINSt13__future_base13_State_baseV2EEEONSt16remove_referenceIT_E4typeEOS6_,comdat
	.weak	_ZSt4moveIRSt10shared_ptrINSt13__future_base13_State_baseV2EEEONSt16remove_referenceIT_E4typeEOS6_
	.type	_ZSt4moveIRSt10shared_ptrINSt13__future_base13_State_baseV2EEEONSt16remove_referenceIT_E4typeEOS6_, @function
_ZSt4moveIRSt10shared_ptrINSt13__future_base13_State_baseV2EEEONSt16remove_referenceIT_E4typeEOS6_:
.LFB6502:
	.cfi_startproc
	pushq	%rbp	#
	.cfi_def_cfa_offset 16
	.cfi_offset 6, -16
	movq	%rsp, %rbp	#,
	.cfi_def_cfa_register 6
	movq	%rdi, -8(%rbp)	# __t, __t
# /usr/include/c++/11.3.0/bits/move.h:105:     { return static_cast<typename std::remove_reference<_Tp>::type&&>(__t); }
	movq	-8(%rbp), %rax	# __t, _2
# /usr/include/c++/11.3.0/bits/move.h:105:     { return static_cast<typename std::remove_reference<_Tp>::type&&>(__t); }
	popq	%rbp	#
	.cfi_def_cfa 7, 8
	ret	
	.cfi_endproc
.LFE6502:
	.size	_ZSt4moveIRSt10shared_ptrINSt13__future_base13_State_baseV2EEEONSt16remove_referenceIT_E4typeEOS6_, .-_ZSt4moveIRSt10shared_ptrINSt13__future_base13_State_baseV2EEEONSt16remove_referenceIT_E4typeEOS6_
	.section	.text._ZNKSt12__shared_ptrINSt13__future_base13_State_baseV2ELN9__gnu_cxx12_Lock_policyE2EEcvbEv,"axG",@progbits,_ZNKSt12__shared_ptrINSt13__future_base13_State_baseV2ELN9__gnu_cxx12_Lock_policyE2EEcvbEv,comdat
	.align 2
	.weak	_ZNKSt12__shared_ptrINSt13__future_base13_State_baseV2ELN9__gnu_cxx12_Lock_policyE2EEcvbEv
	.type	_ZNKSt12__shared_ptrINSt13__future_base13_State_baseV2ELN9__gnu_cxx12_Lock_policyE2EEcvbEv, @function
_ZNKSt12__shared_ptrINSt13__future_base13_State_baseV2ELN9__gnu_cxx12_Lock_policyE2EEcvbEv:
.LFB6516:
	.cfi_startproc
	pushq	%rbp	#
	.cfi_def_cfa_offset 16
	.cfi_offset 6, -16
	movq	%rsp, %rbp	#,
	.cfi_def_cfa_register 6
	movq	%rdi, -8(%rbp)	# this, this
# /usr/include/c++/11.3.0/bits/shared_ptr_base.h:1300:       { return _M_ptr != nullptr; }
	movq	-8(%rbp), %rax	# this, tmp85
	movq	(%rax), %rax	# this_3(D)->_M_ptr, _1
# /usr/include/c++/11.3.0/bits/shared_ptr_base.h:1300:       { return _M_ptr != nullptr; }
	testq	%rax, %rax	# _1
	setne	%al	#, _4
# /usr/include/c++/11.3.0/bits/shared_ptr_base.h:1300:       { return _M_ptr != nullptr; }
	popq	%rbp	#
	.cfi_def_cfa 7, 8
	ret	
	.cfi_endproc
.LFE6516:
	.size	_ZNKSt12__shared_ptrINSt13__future_base13_State_baseV2ELN9__gnu_cxx12_Lock_policyE2EEcvbEv, .-_ZNKSt12__shared_ptrINSt13__future_base13_State_baseV2ELN9__gnu_cxx12_Lock_policyE2EEcvbEv
	.section	.text._ZNKSt19__shared_ptr_accessINSt13__future_base13_State_baseV2ELN9__gnu_cxx12_Lock_policyE2ELb0ELb0EEptEv,"axG",@progbits,_ZNKSt19__shared_ptr_accessINSt13__future_base13_State_baseV2ELN9__gnu_cxx12_Lock_policyE2ELb0ELb0EEptEv,comdat
	.align 2
	.weak	_ZNKSt19__shared_ptr_accessINSt13__future_base13_State_baseV2ELN9__gnu_cxx12_Lock_policyE2ELb0ELb0EEptEv
	.type	_ZNKSt19__shared_ptr_accessINSt13__future_base13_State_baseV2ELN9__gnu_cxx12_Lock_policyE2ELb0ELb0EEptEv, @function
_ZNKSt19__shared_ptr_accessINSt13__future_base13_State_baseV2ELN9__gnu_cxx12_Lock_policyE2ELb0ELb0EEptEv:
.LFB6518:
	.cfi_startproc
	pushq	%rbp	#
	.cfi_def_cfa_offset 16
	.cfi_offset 6, -16
	movq	%rsp, %rbp	#,
	.cfi_def_cfa_register 6
	subq	$16, %rsp	#,
	movq	%rdi, -8(%rbp)	# this, this
# /usr/include/c++/11.3.0/bits/shared_ptr_base.h:987: 	return _M_get();
	movq	-8(%rbp), %rax	# this, tmp84
	movq	%rax, %rdi	# tmp84,
	call	_ZNKSt19__shared_ptr_accessINSt13__future_base13_State_baseV2ELN9__gnu_cxx12_Lock_policyE2ELb0ELb0EE6_M_getEv	#
# /usr/include/c++/11.3.0/bits/shared_ptr_base.h:988:       }
	leave	
	.cfi_def_cfa 7, 8
	ret	
	.cfi_endproc
.LFE6518:
	.size	_ZNKSt19__shared_ptr_accessINSt13__future_base13_State_baseV2ELN9__gnu_cxx12_Lock_policyE2ELb0ELb0EEptEv, .-_ZNKSt19__shared_ptr_accessINSt13__future_base13_State_baseV2ELN9__gnu_cxx12_Lock_policyE2ELb0ELb0EEptEv
	.section	.text._ZNSt15__uniq_ptr_dataINSt13__future_base12_Result_baseENS1_8_DeleterELb1ELb1EECI2St15__uniq_ptr_implIS1_S2_EIS2_EEPS1_OT_,"axG",@progbits,_ZNSt15__uniq_ptr_dataINSt13__future_base12_Result_baseENS1_8_DeleterELb1ELb1EECI5St15__uniq_ptr_implIS1_S2_EIS2_EEPS1_OT_,comdat
	.align 2
	.weak	_ZNSt15__uniq_ptr_dataINSt13__future_base12_Result_baseENS1_8_DeleterELb1ELb1EECI2St15__uniq_ptr_implIS1_S2_EIS2_EEPS1_OT_
	.type	_ZNSt15__uniq_ptr_dataINSt13__future_base12_Result_baseENS1_8_DeleterELb1ELb1EECI2St15__uniq_ptr_implIS1_S2_EIS2_EEPS1_OT_, @function
_ZNSt15__uniq_ptr_dataINSt13__future_base12_Result_baseENS1_8_DeleterELb1ELb1EECI2St15__uniq_ptr_implIS1_S2_EIS2_EEPS1_OT_:
.LFB6521:
	.cfi_startproc
	pushq	%rbp	#
	.cfi_def_cfa_offset 16
	.cfi_offset 6, -16
	movq	%rsp, %rbp	#,
	.cfi_def_cfa_register 6
	subq	$32, %rsp	#,
	movq	%rdi, -8(%rbp)	# this, this
	movq	%rsi, -16(%rbp)	# D.153429, D.153429
	movq	%rdx, -24(%rbp)	# D.153430, D.153430
# /usr/include/c++/11.3.0/bits/unique_ptr.h:210:       using __uniq_ptr_impl<_Tp, _Dp>::__uniq_ptr_impl;
	movq	-8(%rbp), %rax	# this, _1
	movq	-16(%rbp), %rcx	# D.153429, _2
	movq	-24(%rbp), %rdx	# D.153430, tmp84
	movq	%rcx, %rsi	# _2,
	movq	%rax, %rdi	# _1,
	call	_ZNSt15__uniq_ptr_implINSt13__future_base12_Result_baseENS1_8_DeleterEEC2IS2_EEPS1_OT_	#
	nop	
	leave	
	.cfi_def_cfa 7, 8
	ret	
	.cfi_endproc
.LFE6521:
	.size	_ZNSt15__uniq_ptr_dataINSt13__future_base12_Result_baseENS1_8_DeleterELb1ELb1EECI2St15__uniq_ptr_implIS1_S2_EIS2_EEPS1_OT_, .-_ZNSt15__uniq_ptr_dataINSt13__future_base12_Result_baseENS1_8_DeleterELb1ELb1EECI2St15__uniq_ptr_implIS1_S2_EIS2_EEPS1_OT_
	.weak	_ZNSt15__uniq_ptr_dataINSt13__future_base12_Result_baseENS1_8_DeleterELb1ELb1EECI1St15__uniq_ptr_implIS1_S2_EIS2_EEPS1_OT_
	.set	_ZNSt15__uniq_ptr_dataINSt13__future_base12_Result_baseENS1_8_DeleterELb1ELb1EECI1St15__uniq_ptr_implIS1_S2_EIS2_EEPS1_OT_,_ZNSt15__uniq_ptr_dataINSt13__future_base12_Result_baseENS1_8_DeleterELb1ELb1EECI2St15__uniq_ptr_implIS1_S2_EIS2_EEPS1_OT_
	.section	.text._ZNSt12__shared_ptrINSt13__future_base13_State_baseV2ELN9__gnu_cxx12_Lock_policyE2EE4swapERS4_,"axG",@progbits,_ZNSt12__shared_ptrINSt13__future_base13_State_baseV2ELN9__gnu_cxx12_Lock_policyE2EE4swapERS4_,comdat
	.align 2
	.weak	_ZNSt12__shared_ptrINSt13__future_base13_State_baseV2ELN9__gnu_cxx12_Lock_policyE2EE4swapERS4_
	.type	_ZNSt12__shared_ptrINSt13__future_base13_State_baseV2ELN9__gnu_cxx12_Lock_policyE2EE4swapERS4_, @function
_ZNSt12__shared_ptrINSt13__future_base13_State_baseV2ELN9__gnu_cxx12_Lock_policyE2EE4swapERS4_:
.LFB6526:
	.cfi_startproc
	pushq	%rbp	#
	.cfi_def_cfa_offset 16
	.cfi_offset 6, -16
	movq	%rsp, %rbp	#,
	.cfi_def_cfa_register 6
	subq	$16, %rsp	#,
	movq	%rdi, -8(%rbp)	# this, this
	movq	%rsi, -16(%rbp)	# __other, __other
# /usr/include/c++/11.3.0/bits/shared_ptr_base.h:1316: 	std::swap(_M_ptr, __other._M_ptr);
	movq	-16(%rbp), %rdx	# __other, _1
# /usr/include/c++/11.3.0/bits/shared_ptr_base.h:1316: 	std::swap(_M_ptr, __other._M_ptr);
	movq	-8(%rbp), %rax	# this, _2
# /usr/include/c++/11.3.0/bits/shared_ptr_base.h:1316: 	std::swap(_M_ptr, __other._M_ptr);
	movq	%rdx, %rsi	# _1,
	movq	%rax, %rdi	# _2,
	call	_ZSt4swapIPNSt13__future_base13_State_baseV2EENSt9enable_ifIXsrSt6__and_IJSt6__not_ISt15__is_tuple_likeIT_EESt21is_move_constructibleIS7_ESt18is_move_assignableIS7_EEE5valueEvE4typeERS7_SH_	#
# /usr/include/c++/11.3.0/bits/shared_ptr_base.h:1317: 	_M_refcount._M_swap(__other._M_refcount);
	movq	-8(%rbp), %rax	# this, tmp86
	addq	$8, %rax	#, _3
# /usr/include/c++/11.3.0/bits/shared_ptr_base.h:1317: 	_M_refcount._M_swap(__other._M_refcount);
	movq	-16(%rbp), %rdx	# __other, tmp87
	addq	$8, %rdx	#, _4
# /usr/include/c++/11.3.0/bits/shared_ptr_base.h:1317: 	_M_refcount._M_swap(__other._M_refcount);
	movq	%rdx, %rsi	# _4,
	movq	%rax, %rdi	# _3,
	call	_ZNSt14__shared_countILN9__gnu_cxx12_Lock_policyE2EE7_M_swapERS2_	#
# /usr/include/c++/11.3.0/bits/shared_ptr_base.h:1318:       }
	nop	
	leave	
	.cfi_def_cfa 7, 8
	ret	
	.cfi_endproc
.LFE6526:
	.size	_ZNSt12__shared_ptrINSt13__future_base13_State_baseV2ELN9__gnu_cxx12_Lock_policyE2EE4swapERS4_, .-_ZNSt12__shared_ptrINSt13__future_base13_State_baseV2ELN9__gnu_cxx12_Lock_policyE2EE4swapERS4_
	.section	.text._ZNSt14_Function_baseC2Ev,"axG",@progbits,_ZNSt14_Function_baseC5Ev,comdat
	.align 2
	.weak	_ZNSt14_Function_baseC2Ev
	.type	_ZNSt14_Function_baseC2Ev, @function
_ZNSt14_Function_baseC2Ev:
.LFB6532:
	.cfi_startproc
	pushq	%rbp	#
	.cfi_def_cfa_offset 16
	.cfi_offset 6, -16
	movq	%rsp, %rbp	#,
	.cfi_def_cfa_register 6
	movq	%rdi, -8(%rbp)	# this, this
# /usr/include/c++/11.3.0/bits/std_function.h:239:     _Function_base() = default;
	movq	-8(%rbp), %rax	# this, tmp82
	movq	$0, (%rax)	#, this_2(D)->_M_functor
	movq	$0, 8(%rax)	#, this_2(D)->_M_functor
	movq	-8(%rbp), %rax	# this, tmp83
	movq	$0, 16(%rax)	#, this_2(D)->_M_manager
	nop	
	popq	%rbp	#
	.cfi_def_cfa 7, 8
	ret	
	.cfi_endproc
.LFE6532:
	.size	_ZNSt14_Function_baseC2Ev, .-_ZNSt14_Function_baseC2Ev
	.weak	_ZNSt14_Function_baseC1Ev
	.set	_ZNSt14_Function_baseC1Ev,_ZNSt14_Function_baseC2Ev
	.section	.text._ZNSt13__future_base13_State_baseV28_S_checkIS0_EEvRKSt10shared_ptrIT_E,"axG",@progbits,_ZNSt13__future_base13_State_baseV28_S_checkIS0_EEvRKSt10shared_ptrIT_E,comdat
	.weak	_ZNSt13__future_base13_State_baseV28_S_checkIS0_EEvRKSt10shared_ptrIT_E
	.type	_ZNSt13__future_base13_State_baseV28_S_checkIS0_EEvRKSt10shared_ptrIT_E, @function
_ZNSt13__future_base13_State_baseV28_S_checkIS0_EEvRKSt10shared_ptrIT_E:
.LFB6543:
	.cfi_startproc
	pushq	%rbp	#
	.cfi_def_cfa_offset 16
	.cfi_offset 6, -16
	movq	%rsp, %rbp	#,
	.cfi_def_cfa_register 6
	subq	$16, %rsp	#,
	movq	%rdi, -8(%rbp)	# __p, __p
# /usr/include/c++/11.3.0/future:562:           if (!static_cast<bool>(__p))
	movq	-8(%rbp), %rax	# __p, _1
	movq	%rax, %rdi	# _1,
	call	_ZNKSt12__shared_ptrINSt13__future_base13_State_baseV2ELN9__gnu_cxx12_Lock_policyE2EEcvbEv	#
	xorl	$1, %eax	#, retval.90_6
# /usr/include/c++/11.3.0/future:562:           if (!static_cast<bool>(__p))
	testb	%al, %al	# retval.90_6
	je	.L275	#,
# /usr/include/c++/11.3.0/future:563:             __throw_future_error((int)future_errc::no_state);
	movl	$3, %edi	#,
	call	_ZSt20__throw_future_errori@PLT	#
.L275:
# /usr/include/c++/11.3.0/future:564:         }
	nop	
	leave	
	.cfi_def_cfa 7, 8
	ret	
	.cfi_endproc
.LFE6543:
	.size	_ZNSt13__future_base13_State_baseV28_S_checkIS0_EEvRKSt10shared_ptrIT_E, .-_ZNSt13__future_base13_State_baseV28_S_checkIS0_EEvRKSt10shared_ptrIT_E
	.section	.text._ZZSt9call_onceIMSt6threadFvvEJPS0_EEvRSt9once_flagOT_DpOT0_ENKUlvE_clEv,"axG",@progbits,_ZZSt9call_onceIMSt6threadFvvEJPS0_EEvRSt9once_flagOT_DpOT0_ENKUlvE_clEv,comdat
	.align 2
	.weak	_ZZSt9call_onceIMSt6threadFvvEJPS0_EEvRSt9once_flagOT_DpOT0_ENKUlvE_clEv
	.type	_ZZSt9call_onceIMSt6threadFvvEJPS0_EEvRSt9once_flagOT_DpOT0_ENKUlvE_clEv, @function
_ZZSt9call_onceIMSt6threadFvvEJPS0_EEvRSt9once_flagOT_DpOT0_ENKUlvE_clEv:
.LFB6546:
	.cfi_startproc
	pushq	%rbp	#
	.cfi_def_cfa_offset 16
	.cfi_offset 6, -16
	movq	%rsp, %rbp	#,
	.cfi_def_cfa_register 6
	pushq	%rbx	#
	subq	$24, %rsp	#,
	.cfi_offset 3, -24
	movq	%rdi, -24(%rbp)	# __closure, __closure
# /usr/include/c++/11.3.0/mutex:777: 			std::forward<_Args>(__args)...);
	movq	-24(%rbp), %rax	# __closure, tmp86
	movq	8(%rax), %rax	# __closure_6(D)->____args#0, _1
# /usr/include/c++/11.3.0/mutex:776: 	  std::__invoke(std::forward<_Callable>(__f),
	movq	%rax, %rdi	# _1,
	call	_ZSt7forwardIPSt6threadEOT_RNSt16remove_referenceIS2_E4typeE	#
	movq	%rax, %rbx	#, _2
# /usr/include/c++/11.3.0/mutex:775:       auto __callable = [&] {
	movq	-24(%rbp), %rax	# __closure, tmp87
	movq	(%rax), %rax	# __closure_6(D)->____f, _3
# /usr/include/c++/11.3.0/mutex:776: 	  std::__invoke(std::forward<_Callable>(__f),
	movq	%rax, %rdi	# _3,
	call	_ZSt7forwardIMSt6threadFvvEEOT_RNSt16remove_referenceIS3_E4typeE	#
	movq	%rbx, %rsi	# _2,
	movq	%rax, %rdi	# _4,
	call	_ZSt8__invokeIMSt6threadFvvEJPS0_EENSt15__invoke_resultIT_JDpT0_EE4typeEOS5_DpOS6_	#
# /usr/include/c++/11.3.0/mutex:775:       auto __callable = [&] {
	nop	
	movq	-8(%rbp), %rbx	#,
	leave	
	.cfi_def_cfa 7, 8
	ret	
	.cfi_endproc
.LFE6546:
	.size	_ZZSt9call_onceIMSt6threadFvvEJPS0_EEvRSt9once_flagOT_DpOT0_ENKUlvE_clEv, .-_ZZSt9call_onceIMSt6threadFvvEJPS0_EEvRSt9once_flagOT_DpOT0_ENKUlvE_clEv
	.section	.text._ZSt9call_onceIMSt6threadFvvEJPS0_EEvRSt9once_flagOT_DpOT0_,"axG",@progbits,_ZSt9call_onceIMSt6threadFvvEJPS0_EEvRSt9once_flagOT_DpOT0_,comdat
	.weak	_ZSt9call_onceIMSt6threadFvvEJPS0_EEvRSt9once_flagOT_DpOT0_
	.type	_ZSt9call_onceIMSt6threadFvvEJPS0_EEvRSt9once_flagOT_DpOT0_, @function
_ZSt9call_onceIMSt6threadFvvEJPS0_EEvRSt9once_flagOT_DpOT0_:
.LFB6545:
	.cfi_startproc
	.cfi_personality 0x9b,DW.ref.__gxx_personality_v0
	.cfi_lsda 0x1b,.LLSDA6545
	pushq	%rbp	#
	.cfi_def_cfa_offset 16
	.cfi_offset 6, -16
	movq	%rsp, %rbp	#,
	.cfi_def_cfa_register 6
	pushq	%rbx	#
	subq	$88, %rsp	#,
	.cfi_offset 3, -24
	movq	%rdi, -72(%rbp)	# __once, __once
	movq	%rsi, -80(%rbp)	# __f, __f
	movq	%rdx, -88(%rbp)	# __args#0, __args#0
# /usr/include/c++/11.3.0/mutex:772:     call_once(once_flag& __once, _Callable&& __f, _Args&&... __args)
	movq	%fs:40, %rax	# MEM[(<address-space-1> long unsigned int *)40B], tmp95
	movq	%rax, -24(%rbp)	# tmp95, D.192861
	xorl	%eax, %eax	# tmp95
# /usr/include/c++/11.3.0/mutex:775:       auto __callable = [&] {
	movq	-80(%rbp), %rax	# __f, tmp85
	movq	%rax, -48(%rbp)	# tmp85, __callable.____f
	movq	-88(%rbp), %rax	# __args#0, tmp86
	movq	%rax, -40(%rbp)	# tmp86, __callable.____args#0
# /usr/include/c++/11.3.0/mutex:780:       once_flag::_Prepare_execution __exec(__callable);
	leaq	-48(%rbp), %rdx	#, tmp87
	leaq	-53(%rbp), %rax	#, tmp88
	movq	%rdx, %rsi	# tmp87,
	movq	%rax, %rdi	# tmp88,
	call	_ZNSt9once_flag18_Prepare_executionC1IZSt9call_onceIMSt6threadFvvEJPS3_EEvRS_OT_DpOT0_EUlvE_EERS8_	#
# /usr/include/c++/11.3.0/mutex:783:       if (int __e = __gthread_once(&__once._M_once, &__once_proxy))
	movq	-72(%rbp), %rax	# __once, _1
	movq	__once_proxy@GOTPCREL(%rip), %rdx	#, tmp90
	movq	%rdx, %rsi	# tmp89,
	movq	%rax, %rdi	# _1,
.LEHB11:
	call	_ZL14__gthread_oncePiPFvvE	#
	movl	%eax, -52(%rbp)	# _11, __e
# /usr/include/c++/11.3.0/mutex:783:       if (int __e = __gthread_once(&__once._M_once, &__once_proxy))
	cmpl	$0, -52(%rbp)	#, __e
	je	.L278	#,
# /usr/include/c++/11.3.0/mutex:784: 	__throw_system_error(__e);
	movl	-52(%rbp), %eax	# __e, tmp91
	movl	%eax, %edi	# tmp91,
	call	_ZSt20__throw_system_errori@PLT	#
.LEHE11:
.L278:
# /usr/include/c++/11.3.0/mutex:785:     }
	leaq	-53(%rbp), %rax	#, tmp92
	movq	%rax, %rdi	# tmp92,
	call	_ZNSt9once_flag18_Prepare_executionD1Ev	#
	movq	-24(%rbp), %rax	# D.192861, tmp96
	subq	%fs:40, %rax	# MEM[(<address-space-1> long unsigned int *)40B], tmp96
	je	.L280	#,
	jmp	.L282	#
.L281:
	movq	%rax, %rbx	#, tmp94
	leaq	-53(%rbp), %rax	#, tmp93
	movq	%rax, %rdi	# tmp93,
	call	_ZNSt9once_flag18_Prepare_executionD1Ev	#
	movq	%rbx, %rax	# tmp94, D.192860
	movq	%rax, %rdi	# D.192860,
.LEHB12:
	call	_Unwind_Resume@PLT	#
.LEHE12:
.L282:
	call	__stack_chk_fail@PLT	#
.L280:
	movq	-8(%rbp), %rbx	#,
	leave	
	.cfi_def_cfa 7, 8
	ret	
	.cfi_endproc
.LFE6545:
	.section	.gcc_except_table
.LLSDA6545:
	.byte	0xff
	.byte	0xff
	.byte	0x1
	.uleb128 .LLSDACSE6545-.LLSDACSB6545
.LLSDACSB6545:
	.uleb128 .LEHB11-.LFB6545
	.uleb128 .LEHE11-.LEHB11
	.uleb128 .L281-.LFB6545
	.uleb128 0
	.uleb128 .LEHB12-.LFB6545
	.uleb128 .LEHE12-.LEHB12
	.uleb128 0
	.uleb128 0
.LLSDACSE6545:
	.section	.text._ZSt9call_onceIMSt6threadFvvEJPS0_EEvRSt9once_flagOT_DpOT0_,"axG",@progbits,_ZSt9call_onceIMSt6threadFvvEJPS0_EEvRSt9once_flagOT_DpOT0_,comdat
	.size	_ZSt9call_onceIMSt6threadFvvEJPS0_EEvRSt9once_flagOT_DpOT0_, .-_ZSt9call_onceIMSt6threadFvvEJPS0_EEvRSt9once_flagOT_DpOT0_
	.section	.text._ZSt3maxImERKT_S2_S2_,"axG",@progbits,_ZSt3maxImERKT_S2_S2_,comdat
	.weak	_ZSt3maxImERKT_S2_S2_
	.type	_ZSt3maxImERKT_S2_S2_, @function
_ZSt3maxImERKT_S2_S2_:
.LFB6551:
	.cfi_startproc
	pushq	%rbp	#
	.cfi_def_cfa_offset 16
	.cfi_offset 6, -16
	movq	%rsp, %rbp	#,
	.cfi_def_cfa_register 6
	movq	%rdi, -8(%rbp)	# __a, __a
	movq	%rsi, -16(%rbp)	# __b, __b
# /usr/include/c++/11.3.0/bits/stl_algobase.h:259:       if (__a < __b)
	movq	-8(%rbp), %rax	# __a, tmp86
	movq	(%rax), %rdx	# *__a_5(D), _1
	movq	-16(%rbp), %rax	# __b, tmp87
	movq	(%rax), %rax	# *__b_6(D), _2
# /usr/include/c++/11.3.0/bits/stl_algobase.h:259:       if (__a < __b)
	cmpq	%rax, %rdx	# _2, _1
	jnb	.L284	#,
# /usr/include/c++/11.3.0/bits/stl_algobase.h:260: 	return __b;
	movq	-16(%rbp), %rax	# __b, _3
	jmp	.L285	#
.L284:
# /usr/include/c++/11.3.0/bits/stl_algobase.h:261:       return __a;
	movq	-8(%rbp), %rax	# __a, _3
.L285:
# /usr/include/c++/11.3.0/bits/stl_algobase.h:262:     }
	popq	%rbp	#
	.cfi_def_cfa 7, 8
	ret	
	.cfi_endproc
.LFE6551:
	.size	_ZSt3maxImERKT_S2_S2_, .-_ZSt3maxImERKT_S2_S2_
	.section	.text._ZSt7forwardIiEOT_RNSt16remove_referenceIS0_E4typeE,"axG",@progbits,_ZSt7forwardIiEOT_RNSt16remove_referenceIS0_E4typeE,comdat
	.weak	_ZSt7forwardIiEOT_RNSt16remove_referenceIS0_E4typeE
	.type	_ZSt7forwardIiEOT_RNSt16remove_referenceIS0_E4typeE, @function
_ZSt7forwardIiEOT_RNSt16remove_referenceIS0_E4typeE:
.LFB6556:
	.cfi_startproc
	pushq	%rbp	#
	.cfi_def_cfa_offset 16
	.cfi_offset 6, -16
	movq	%rsp, %rbp	#,
	.cfi_def_cfa_register 6
	movq	%rdi, -8(%rbp)	# __t, __t
# /usr/include/c++/11.3.0/bits/move.h:78:     { return static_cast<_Tp&&>(__t); }
	movq	-8(%rbp), %rax	# __t, _2
# /usr/include/c++/11.3.0/bits/move.h:78:     { return static_cast<_Tp&&>(__t); }
	popq	%rbp	#
	.cfi_def_cfa 7, 8
	ret	
	.cfi_endproc
.LFE6556:
	.size	_ZSt7forwardIiEOT_RNSt16remove_referenceIS0_E4typeE, .-_ZSt7forwardIiEOT_RNSt16remove_referenceIS0_E4typeE
	.section	.text._ZNKSt6vectorIiSaIiEE5beginEv,"axG",@progbits,_ZNKSt6vectorIiSaIiEE5beginEv,comdat
	.align 2
	.weak	_ZNKSt6vectorIiSaIiEE5beginEv
	.type	_ZNKSt6vectorIiSaIiEE5beginEv, @function
_ZNKSt6vectorIiSaIiEE5beginEv:
.LFB6559:
	.cfi_startproc
	pushq	%rbp	#
	.cfi_def_cfa_offset 16
	.cfi_offset 6, -16
	movq	%rsp, %rbp	#,
	.cfi_def_cfa_register 6
	subq	$32, %rsp	#,
	movq	%rdi, -24(%rbp)	# this, this
# /usr/include/c++/11.3.0/bits/stl_vector.h:820:       begin() const _GLIBCXX_NOEXCEPT
	movq	%fs:40, %rax	# MEM[(<address-space-1> long unsigned int *)40B], tmp87
	movq	%rax, -8(%rbp)	# tmp87, D.192862
	xorl	%eax, %eax	# tmp87
# /usr/include/c++/11.3.0/bits/stl_vector.h:821:       { return const_iterator(this->_M_impl._M_start); }
	movq	-24(%rbp), %rdx	# this, _1
# /usr/include/c++/11.3.0/bits/stl_vector.h:821:       { return const_iterator(this->_M_impl._M_start); }
	leaq	-16(%rbp), %rax	#, tmp85
	movq	%rdx, %rsi	# _1,
	movq	%rax, %rdi	# tmp85,
	call	_ZN9__gnu_cxx17__normal_iteratorIPKiSt6vectorIiSaIiEEEC1ERKS2_	#
# /usr/include/c++/11.3.0/bits/stl_vector.h:821:       { return const_iterator(this->_M_impl._M_start); }
	movq	-16(%rbp), %rax	# D.154128, D.190585
# /usr/include/c++/11.3.0/bits/stl_vector.h:821:       { return const_iterator(this->_M_impl._M_start); }
	movq	-8(%rbp), %rdx	# D.192862, tmp88
	subq	%fs:40, %rdx	# MEM[(<address-space-1> long unsigned int *)40B], tmp88
	je	.L290	#,
	call	__stack_chk_fail@PLT	#
.L290:
	leave	
	.cfi_def_cfa 7, 8
	ret	
	.cfi_endproc
.LFE6559:
	.size	_ZNKSt6vectorIiSaIiEE5beginEv, .-_ZNKSt6vectorIiSaIiEE5beginEv
	.section	.text._ZNK9__gnu_cxx17__normal_iteratorIPKiSt6vectorIiSaIiEEEplEl,"axG",@progbits,_ZNK9__gnu_cxx17__normal_iteratorIPKiSt6vectorIiSaIiEEEplEl,comdat
	.align 2
	.weak	_ZNK9__gnu_cxx17__normal_iteratorIPKiSt6vectorIiSaIiEEEplEl
	.type	_ZNK9__gnu_cxx17__normal_iteratorIPKiSt6vectorIiSaIiEEEplEl, @function
_ZNK9__gnu_cxx17__normal_iteratorIPKiSt6vectorIiSaIiEEEplEl:
.LFB6560:
	.cfi_startproc
	pushq	%rbp	#
	.cfi_def_cfa_offset 16
	.cfi_offset 6, -16
	movq	%rsp, %rbp	#,
	.cfi_def_cfa_register 6
	subq	$48, %rsp	#,
	movq	%rdi, -40(%rbp)	# this, this
	movq	%rsi, -48(%rbp)	# __n, __n
# /usr/include/c++/11.3.0/bits/stl_iterator.h:1073:       operator+(difference_type __n) const _GLIBCXX_NOEXCEPT
	movq	%fs:40, %rax	# MEM[(<address-space-1> long unsigned int *)40B], tmp92
	movq	%rax, -8(%rbp)	# tmp92, D.192863
	xorl	%eax, %eax	# tmp92
# /usr/include/c++/11.3.0/bits/stl_iterator.h:1074:       { return __normal_iterator(_M_current + __n); }
	movq	-40(%rbp), %rax	# this, tmp88
	movq	(%rax), %rdx	# this_6(D)->_M_current, _1
# /usr/include/c++/11.3.0/bits/stl_iterator.h:1074:       { return __normal_iterator(_M_current + __n); }
	movq	-48(%rbp), %rax	# __n, __n.2_2
# /usr/include/c++/11.3.0/bits/stl_iterator.h:1074:       { return __normal_iterator(_M_current + __n); }
	salq	$2, %rax	#, _3
	addq	%rdx, %rax	# _1, _4
	movq	%rax, -24(%rbp)	# _4, D.154131
# /usr/include/c++/11.3.0/bits/stl_iterator.h:1074:       { return __normal_iterator(_M_current + __n); }
	leaq	-24(%rbp), %rdx	#, tmp89
	leaq	-16(%rbp), %rax	#, tmp90
	movq	%rdx, %rsi	# tmp89,
	movq	%rax, %rdi	# tmp90,
	call	_ZN9__gnu_cxx17__normal_iteratorIPKiSt6vectorIiSaIiEEEC1ERKS2_	#
# /usr/include/c++/11.3.0/bits/stl_iterator.h:1074:       { return __normal_iterator(_M_current + __n); }
	movq	-16(%rbp), %rax	# D.154132, D.190589
# /usr/include/c++/11.3.0/bits/stl_iterator.h:1074:       { return __normal_iterator(_M_current + __n); }
	movq	-8(%rbp), %rdx	# D.192863, tmp93
	subq	%fs:40, %rdx	# MEM[(<address-space-1> long unsigned int *)40B], tmp93
	je	.L293	#,
	call	__stack_chk_fail@PLT	#
.L293:
	leave	
	.cfi_def_cfa 7, 8
	ret	
	.cfi_endproc
.LFE6560:
	.size	_ZNK9__gnu_cxx17__normal_iteratorIPKiSt6vectorIiSaIiEEEplEl, .-_ZNK9__gnu_cxx17__normal_iteratorIPKiSt6vectorIiSaIiEEEplEl
	.section	.text._ZNK9__gnu_cxx17__normal_iteratorIPKiSt6vectorIiSaIiEEE4baseEv,"axG",@progbits,_ZNK9__gnu_cxx17__normal_iteratorIPKiSt6vectorIiSaIiEEE4baseEv,comdat
	.align 2
	.weak	_ZNK9__gnu_cxx17__normal_iteratorIPKiSt6vectorIiSaIiEEE4baseEv
	.type	_ZNK9__gnu_cxx17__normal_iteratorIPKiSt6vectorIiSaIiEEE4baseEv, @function
_ZNK9__gnu_cxx17__normal_iteratorIPKiSt6vectorIiSaIiEEE4baseEv:
.LFB6562:
	.cfi_startproc
	pushq	%rbp	#
	.cfi_def_cfa_offset 16
	.cfi_offset 6, -16
	movq	%rsp, %rbp	#,
	.cfi_def_cfa_register 6
	movq	%rdi, -8(%rbp)	# this, this
# /usr/include/c++/11.3.0/bits/stl_iterator.h:1089:       { return _M_current; }
	movq	-8(%rbp), %rax	# this, _2
# /usr/include/c++/11.3.0/bits/stl_iterator.h:1089:       { return _M_current; }
	popq	%rbp	#
	.cfi_def_cfa 7, 8
	ret	
	.cfi_endproc
.LFE6562:
	.size	_ZNK9__gnu_cxx17__normal_iteratorIPKiSt6vectorIiSaIiEEE4baseEv, .-_ZNK9__gnu_cxx17__normal_iteratorIPKiSt6vectorIiSaIiEEE4baseEv
	.section	.text._ZN9__gnu_cxx17__normal_iteratorIPKiSt6vectorIiSaIiEEEppEv,"axG",@progbits,_ZN9__gnu_cxx17__normal_iteratorIPKiSt6vectorIiSaIiEEEppEv,comdat
	.align 2
	.weak	_ZN9__gnu_cxx17__normal_iteratorIPKiSt6vectorIiSaIiEEEppEv
	.type	_ZN9__gnu_cxx17__normal_iteratorIPKiSt6vectorIiSaIiEEEppEv, @function
_ZN9__gnu_cxx17__normal_iteratorIPKiSt6vectorIiSaIiEEEppEv:
.LFB6563:
	.cfi_startproc
	pushq	%rbp	#
	.cfi_def_cfa_offset 16
	.cfi_offset 6, -16
	movq	%rsp, %rbp	#,
	.cfi_def_cfa_register 6
	movq	%rdi, -8(%rbp)	# this, this
# /usr/include/c++/11.3.0/bits/stl_iterator.h:1037: 	++_M_current;
	movq	-8(%rbp), %rax	# this, tmp86
	movq	(%rax), %rax	# this_4(D)->_M_current, _1
# /usr/include/c++/11.3.0/bits/stl_iterator.h:1037: 	++_M_current;
	leaq	4(%rax), %rdx	#, _2
	movq	-8(%rbp), %rax	# this, tmp87
	movq	%rdx, (%rax)	# _2, this_4(D)->_M_current
# /usr/include/c++/11.3.0/bits/stl_iterator.h:1038: 	return *this;
	movq	-8(%rbp), %rax	# this, _6
# /usr/include/c++/11.3.0/bits/stl_iterator.h:1039:       }
	popq	%rbp	#
	.cfi_def_cfa 7, 8
	ret	
	.cfi_endproc
.LFE6563:
	.size	_ZN9__gnu_cxx17__normal_iteratorIPKiSt6vectorIiSaIiEEEppEv, .-_ZN9__gnu_cxx17__normal_iteratorIPKiSt6vectorIiSaIiEEEppEv
	.section	.text._ZSt4moveIRiEONSt16remove_referenceIT_E4typeEOS2_,"axG",@progbits,_ZSt4moveIRiEONSt16remove_referenceIT_E4typeEOS2_,comdat
	.weak	_ZSt4moveIRiEONSt16remove_referenceIT_E4typeEOS2_
	.type	_ZSt4moveIRiEONSt16remove_referenceIT_E4typeEOS2_, @function
_ZSt4moveIRiEONSt16remove_referenceIT_E4typeEOS2_:
.LFB6564:
	.cfi_startproc
	pushq	%rbp	#
	.cfi_def_cfa_offset 16
	.cfi_offset 6, -16
	movq	%rsp, %rbp	#,
	.cfi_def_cfa_register 6
	movq	%rdi, -8(%rbp)	# __t, __t
# /usr/include/c++/11.3.0/bits/move.h:105:     { return static_cast<typename std::remove_reference<_Tp>::type&&>(__t); }
	movq	-8(%rbp), %rax	# __t, _2
# /usr/include/c++/11.3.0/bits/move.h:105:     { return static_cast<typename std::remove_reference<_Tp>::type&&>(__t); }
	popq	%rbp	#
	.cfi_def_cfa 7, 8
	ret	
	.cfi_endproc
.LFE6564:
	.size	_ZSt4moveIRiEONSt16remove_referenceIT_E4typeEOS2_, .-_ZSt4moveIRiEONSt16remove_referenceIT_E4typeEOS2_
	.section	.text._ZN9__gnu_cxxeqIPKiS2_St6vectorIiSaIiEEEEbRKNS_17__normal_iteratorIT_T1_EERKNS6_IT0_S8_EE,"axG",@progbits,_ZN9__gnu_cxxeqIPKiS2_St6vectorIiSaIiEEEEbRKNS_17__normal_iteratorIT_T1_EERKNS6_IT0_S8_EE,comdat
	.weak	_ZN9__gnu_cxxeqIPKiS2_St6vectorIiSaIiEEEEbRKNS_17__normal_iteratorIT_T1_EERKNS6_IT0_S8_EE
	.type	_ZN9__gnu_cxxeqIPKiS2_St6vectorIiSaIiEEEEbRKNS_17__normal_iteratorIT_T1_EERKNS6_IT0_S8_EE, @function
_ZN9__gnu_cxxeqIPKiS2_St6vectorIiSaIiEEEEbRKNS_17__normal_iteratorIT_T1_EERKNS6_IT0_S8_EE:
.LFB6565:
	.cfi_startproc
	pushq	%rbp	#
	.cfi_def_cfa_offset 16
	.cfi_offset 6, -16
	movq	%rsp, %rbp	#,
	.cfi_def_cfa_register 6
	pushq	%rbx	#
	subq	$24, %rsp	#,
	.cfi_offset 3, -24
	movq	%rdi, -24(%rbp)	# __lhs, __lhs
	movq	%rsi, -32(%rbp)	# __rhs, __rhs
# /usr/include/c++/11.3.0/bits/stl_iterator.h:1108:     { return __lhs.base() == __rhs.base(); }
	movq	-24(%rbp), %rax	# __lhs, tmp88
	movq	%rax, %rdi	# tmp88,
	call	_ZNK9__gnu_cxx17__normal_iteratorIPKiSt6vectorIiSaIiEEE4baseEv	#
# /usr/include/c++/11.3.0/bits/stl_iterator.h:1108:     { return __lhs.base() == __rhs.base(); }
	movq	(%rax), %rbx	# *_1, _2
# /usr/include/c++/11.3.0/bits/stl_iterator.h:1108:     { return __lhs.base() == __rhs.base(); }
	movq	-32(%rbp), %rax	# __rhs, tmp89
	movq	%rax, %rdi	# tmp89,
	call	_ZNK9__gnu_cxx17__normal_iteratorIPKiSt6vectorIiSaIiEEE4baseEv	#
# /usr/include/c++/11.3.0/bits/stl_iterator.h:1108:     { return __lhs.base() == __rhs.base(); }
	movq	(%rax), %rax	# *_3, _4
# /usr/include/c++/11.3.0/bits/stl_iterator.h:1108:     { return __lhs.base() == __rhs.base(); }
	cmpq	%rax, %rbx	# _4, _2
	sete	%al	#, _10
# /usr/include/c++/11.3.0/bits/stl_iterator.h:1108:     { return __lhs.base() == __rhs.base(); }
	movq	-8(%rbp), %rbx	#,
	leave	
	.cfi_def_cfa 7, 8
	ret	
	.cfi_endproc
.LFE6565:
	.size	_ZN9__gnu_cxxeqIPKiS2_St6vectorIiSaIiEEEEbRKNS_17__normal_iteratorIT_T1_EERKNS6_IT0_S8_EE, .-_ZN9__gnu_cxxeqIPKiS2_St6vectorIiSaIiEEEEbRKNS_17__normal_iteratorIT_T1_EERKNS6_IT0_S8_EE
	.section	.text._ZSt10accumulateIN9__gnu_cxx17__normal_iteratorIPKiSt6vectorIiSaIiEEEEiET0_T_S9_S8_,"axG",@progbits,_ZSt10accumulateIN9__gnu_cxx17__normal_iteratorIPKiSt6vectorIiSaIiEEEEiET0_T_S9_S8_,comdat
	.weak	_ZSt10accumulateIN9__gnu_cxx17__normal_iteratorIPKiSt6vectorIiSaIiEEEEiET0_T_S9_S8_
	.type	_ZSt10accumulateIN9__gnu_cxx17__normal_iteratorIPKiSt6vectorIiSaIiEEEEiET0_T_S9_S8_, @function
_ZSt10accumulateIN9__gnu_cxx17__normal_iteratorIPKiSt6vectorIiSaIiEEEEiET0_T_S9_S8_:
.LFB6561:
	.cfi_startproc
	pushq	%rbp	#
	.cfi_def_cfa_offset 16
	.cfi_offset 6, -16
	movq	%rsp, %rbp	#,
	.cfi_def_cfa_register 6
	pushq	%rbx	#
	subq	$40, %rsp	#,
	.cfi_offset 3, -24
	movq	%rdi, -24(%rbp)	# __first, __first
	movq	%rsi, -32(%rbp)	# __last, __last
	movl	%edx, -36(%rbp)	# __init, __init
# /usr/include/c++/11.3.0/bits/stl_numeric.h:140:       for (; __first != __last; ++__first)
	jmp	.L303	#
.L304:
# /usr/include/c++/11.3.0/bits/stl_numeric.h:141: 	__init = _GLIBCXX_MOVE_IF_20(__init) + *__first;
	leaq	-36(%rbp), %rax	#, tmp91
	movq	%rax, %rdi	# tmp91,
	call	_ZSt4moveIRiEONSt16remove_referenceIT_E4typeEOS2_	#
# /usr/include/c++/11.3.0/bits/stl_numeric.h:141: 	__init = _GLIBCXX_MOVE_IF_20(__init) + *__first;
	movl	(%rax), %ebx	# *_1, _2
# /usr/include/c++/11.3.0/bits/stl_numeric.h:141: 	__init = _GLIBCXX_MOVE_IF_20(__init) + *__first;
	leaq	-24(%rbp), %rax	#, tmp92
	movq	%rax, %rdi	# tmp92,
	call	_ZNK9__gnu_cxx17__normal_iteratorIPKiSt6vectorIiSaIiEEEdeEv	#
# /usr/include/c++/11.3.0/bits/stl_numeric.h:141: 	__init = _GLIBCXX_MOVE_IF_20(__init) + *__first;
	movl	(%rax), %eax	# *_3, _4
	addl	%ebx, %eax	# _2, _5
# /usr/include/c++/11.3.0/bits/stl_numeric.h:141: 	__init = _GLIBCXX_MOVE_IF_20(__init) + *__first;
	movl	%eax, -36(%rbp)	# _5, __init
# /usr/include/c++/11.3.0/bits/stl_numeric.h:140:       for (; __first != __last; ++__first)
	leaq	-24(%rbp), %rax	#, tmp93
	movq	%rax, %rdi	# tmp93,
	call	_ZN9__gnu_cxx17__normal_iteratorIPKiSt6vectorIiSaIiEEEppEv	#
.L303:
# /usr/include/c++/11.3.0/bits/stl_numeric.h:140:       for (; __first != __last; ++__first)
	leaq	-32(%rbp), %rdx	#, tmp94
	leaq	-24(%rbp), %rax	#, tmp95
	movq	%rdx, %rsi	# tmp94,
	movq	%rax, %rdi	# tmp95,
	call	_ZN9__gnu_cxxeqIPKiS2_St6vectorIiSaIiEEEEbRKNS_17__normal_iteratorIT_T1_EERKNS6_IT0_S8_EE	#
	xorl	$1, %eax	#, retval.3_10
	testb	%al, %al	# retval.3_10
	jne	.L304	#,
# /usr/include/c++/11.3.0/bits/stl_numeric.h:142:       return __init;
	movl	-36(%rbp), %eax	# __init, _11
# /usr/include/c++/11.3.0/bits/stl_numeric.h:143:     }
	movq	-8(%rbp), %rbx	#,
	leave	
	.cfi_def_cfa 7, 8
	ret	
	.cfi_endproc
.LFE6561:
	.size	_ZSt10accumulateIN9__gnu_cxx17__normal_iteratorIPKiSt6vectorIiSaIiEEEEiET0_T_S9_S8_, .-_ZSt10accumulateIN9__gnu_cxx17__normal_iteratorIPKiSt6vectorIiSaIiEEEEiET0_T_S9_S8_
	.section	.text._ZNSt12__shared_ptrINSt13__future_base13_State_baseV2ELN9__gnu_cxx12_Lock_policyE2EEC2Ev,"axG",@progbits,_ZNSt12__shared_ptrINSt13__future_base13_State_baseV2ELN9__gnu_cxx12_Lock_policyE2EEC5Ev,comdat
	.align 2
	.weak	_ZNSt12__shared_ptrINSt13__future_base13_State_baseV2ELN9__gnu_cxx12_Lock_policyE2EEC2Ev
	.type	_ZNSt12__shared_ptrINSt13__future_base13_State_baseV2ELN9__gnu_cxx12_Lock_policyE2EEC2Ev, @function
_ZNSt12__shared_ptrINSt13__future_base13_State_baseV2ELN9__gnu_cxx12_Lock_policyE2EEC2Ev:
.LFB6579:
	.cfi_startproc
	pushq	%rbp	#
	.cfi_def_cfa_offset 16
	.cfi_offset 6, -16
	movq	%rsp, %rbp	#,
	.cfi_def_cfa_register 6
	subq	$16, %rsp	#,
	movq	%rdi, -8(%rbp)	# this, this
# /usr/include/c++/11.3.0/bits/shared_ptr_base.h:1093:       : _M_ptr(0), _M_refcount()
	movq	-8(%rbp), %rax	# this, tmp84
	movq	$0, (%rax)	#, this_4(D)->_M_ptr
# /usr/include/c++/11.3.0/bits/shared_ptr_base.h:1093:       : _M_ptr(0), _M_refcount()
	movq	-8(%rbp), %rax	# this, tmp85
	addq	$8, %rax	#, _1
	movq	%rax, %rdi	# _1,
	call	_ZNSt14__shared_countILN9__gnu_cxx12_Lock_policyE2EEC1Ev	#
# /usr/include/c++/11.3.0/bits/shared_ptr_base.h:1094:       { }
	nop	
	leave	
	.cfi_def_cfa 7, 8
	ret	
	.cfi_endproc
.LFE6579:
	.size	_ZNSt12__shared_ptrINSt13__future_base13_State_baseV2ELN9__gnu_cxx12_Lock_policyE2EEC2Ev, .-_ZNSt12__shared_ptrINSt13__future_base13_State_baseV2ELN9__gnu_cxx12_Lock_policyE2EEC2Ev
	.weak	_ZNSt12__shared_ptrINSt13__future_base13_State_baseV2ELN9__gnu_cxx12_Lock_policyE2EEC1Ev
	.set	_ZNSt12__shared_ptrINSt13__future_base13_State_baseV2ELN9__gnu_cxx12_Lock_policyE2EEC1Ev,_ZNSt12__shared_ptrINSt13__future_base13_State_baseV2ELN9__gnu_cxx12_Lock_policyE2EEC2Ev
	.section	.text._ZNSt14__shared_countILN9__gnu_cxx12_Lock_policyE2EEC2Ev,"axG",@progbits,_ZNSt14__shared_countILN9__gnu_cxx12_Lock_policyE2EEC5Ev,comdat
	.align 2
	.weak	_ZNSt14__shared_countILN9__gnu_cxx12_Lock_policyE2EEC2Ev
	.type	_ZNSt14__shared_countILN9__gnu_cxx12_Lock_policyE2EEC2Ev, @function
_ZNSt14__shared_countILN9__gnu_cxx12_Lock_policyE2EEC2Ev:
.LFB6582:
	.cfi_startproc
	pushq	%rbp	#
	.cfi_def_cfa_offset 16
	.cfi_offset 6, -16
	movq	%rsp, %rbp	#,
	.cfi_def_cfa_register 6
	movq	%rdi, -8(%rbp)	# this, this
# /usr/include/c++/11.3.0/bits/shared_ptr_base.h:587:       constexpr __shared_count() noexcept : _M_pi(0)
	movq	-8(%rbp), %rax	# this, tmp82
	movq	$0, (%rax)	#, this_2(D)->_M_pi
# /usr/include/c++/11.3.0/bits/shared_ptr_base.h:588:       { }
	nop	
	popq	%rbp	#
	.cfi_def_cfa 7, 8
	ret	
	.cfi_endproc
.LFE6582:
	.size	_ZNSt14__shared_countILN9__gnu_cxx12_Lock_policyE2EEC2Ev, .-_ZNSt14__shared_countILN9__gnu_cxx12_Lock_policyE2EEC2Ev
	.weak	_ZNSt14__shared_countILN9__gnu_cxx12_Lock_policyE2EEC1Ev
	.set	_ZNSt14__shared_countILN9__gnu_cxx12_Lock_policyE2EEC1Ev,_ZNSt14__shared_countILN9__gnu_cxx12_Lock_policyE2EEC2Ev
	.section	.text._ZNSt12__shared_ptrINSt13__future_base17_Async_state_implINSt6thread8_InvokerISt5tupleIJPFyRKSt6vectorIiSaIiEEmmmES7_mmmEEEEyEELN9__gnu_cxx12_Lock_policyE2EED2Ev,"axG",@progbits,_ZNSt12__shared_ptrINSt13__future_base17_Async_state_implINSt6thread8_InvokerISt5tupleIJPFyRKSt6vectorIiSaIiEEmmmES7_mmmEEEEyEELN9__gnu_cxx12_Lock_policyE2EED5Ev,comdat
	.align 2
	.weak	_ZNSt12__shared_ptrINSt13__future_base17_Async_state_implINSt6thread8_InvokerISt5tupleIJPFyRKSt6vectorIiSaIiEEmmmES7_mmmEEEEyEELN9__gnu_cxx12_Lock_policyE2EED2Ev
	.type	_ZNSt12__shared_ptrINSt13__future_base17_Async_state_implINSt6thread8_InvokerISt5tupleIJPFyRKSt6vectorIiSaIiEEmmmES7_mmmEEEEyEELN9__gnu_cxx12_Lock_policyE2EED2Ev, @function
_ZNSt12__shared_ptrINSt13__future_base17_Async_state_implINSt6thread8_InvokerISt5tupleIJPFyRKSt6vectorIiSaIiEEmmmES7_mmmEEEEyEELN9__gnu_cxx12_Lock_policyE2EED2Ev:
.LFB6586:
	.cfi_startproc
	pushq	%rbp	#
	.cfi_def_cfa_offset 16
	.cfi_offset 6, -16
	movq	%rsp, %rbp	#,
	.cfi_def_cfa_register 6
	subq	$16, %rsp	#,
	movq	%rdi, -8(%rbp)	# this, this
# /usr/include/c++/11.3.0/bits/shared_ptr_base.h:1154:       ~__shared_ptr() = default;
	movq	-8(%rbp), %rax	# this, tmp83
	addq	$8, %rax	#, _1
	movq	%rax, %rdi	# _1,
	call	_ZNSt14__shared_countILN9__gnu_cxx12_Lock_policyE2EED1Ev	#
	nop	
	leave	
	.cfi_def_cfa 7, 8
	ret	
	.cfi_endproc
.LFE6586:
	.size	_ZNSt12__shared_ptrINSt13__future_base17_Async_state_implINSt6thread8_InvokerISt5tupleIJPFyRKSt6vectorIiSaIiEEmmmES7_mmmEEEEyEELN9__gnu_cxx12_Lock_policyE2EED2Ev, .-_ZNSt12__shared_ptrINSt13__future_base17_Async_state_implINSt6thread8_InvokerISt5tupleIJPFyRKSt6vectorIiSaIiEEmmmES7_mmmEEEEyEELN9__gnu_cxx12_Lock_policyE2EED2Ev
	.weak	_ZNSt12__shared_ptrINSt13__future_base17_Async_state_implINSt6thread8_InvokerISt5tupleIJPFyRKSt6vectorIiSaIiEEmmmES7_mmmEEEEyEELN9__gnu_cxx12_Lock_policyE2EED1Ev
	.set	_ZNSt12__shared_ptrINSt13__future_base17_Async_state_implINSt6thread8_InvokerISt5tupleIJPFyRKSt6vectorIiSaIiEEmmmES7_mmmEEEEyEELN9__gnu_cxx12_Lock_policyE2EED1Ev,_ZNSt12__shared_ptrINSt13__future_base17_Async_state_implINSt6thread8_InvokerISt5tupleIJPFyRKSt6vectorIiSaIiEEmmmES7_mmmEEEEyEELN9__gnu_cxx12_Lock_policyE2EED2Ev
	.section	.text._ZNSt10shared_ptrINSt13__future_base17_Async_state_implINSt6thread8_InvokerISt5tupleIJPFyRKSt6vectorIiSaIiEEmmmES7_mmmEEEEyEEED2Ev,"axG",@progbits,_ZNSt10shared_ptrINSt13__future_base17_Async_state_implINSt6thread8_InvokerISt5tupleIJPFyRKSt6vectorIiSaIiEEmmmES7_mmmEEEEyEEED5Ev,comdat
	.align 2
	.weak	_ZNSt10shared_ptrINSt13__future_base17_Async_state_implINSt6thread8_InvokerISt5tupleIJPFyRKSt6vectorIiSaIiEEmmmES7_mmmEEEEyEEED2Ev
	.type	_ZNSt10shared_ptrINSt13__future_base17_Async_state_implINSt6thread8_InvokerISt5tupleIJPFyRKSt6vectorIiSaIiEEmmmES7_mmmEEEEyEEED2Ev, @function
_ZNSt10shared_ptrINSt13__future_base17_Async_state_implINSt6thread8_InvokerISt5tupleIJPFyRKSt6vectorIiSaIiEEmmmES7_mmmEEEEyEEED2Ev:
.LFB6588:
	.cfi_startproc
	pushq	%rbp	#
	.cfi_def_cfa_offset 16
	.cfi_offset 6, -16
	movq	%rsp, %rbp	#,
	.cfi_def_cfa_register 6
	subq	$16, %rsp	#,
	movq	%rdi, -8(%rbp)	# this, this
# /usr/include/c++/11.3.0/bits/shared_ptr.h:122:     class shared_ptr : public __shared_ptr<_Tp>
	movq	-8(%rbp), %rax	# this, _1
	movq	%rax, %rdi	# _1,
	call	_ZNSt12__shared_ptrINSt13__future_base17_Async_state_implINSt6thread8_InvokerISt5tupleIJPFyRKSt6vectorIiSaIiEEmmmES7_mmmEEEEyEELN9__gnu_cxx12_Lock_policyE2EED2Ev	#
	nop	
	leave	
	.cfi_def_cfa 7, 8
	ret	
	.cfi_endproc
.LFE6588:
	.size	_ZNSt10shared_ptrINSt13__future_base17_Async_state_implINSt6thread8_InvokerISt5tupleIJPFyRKSt6vectorIiSaIiEEmmmES7_mmmEEEEyEEED2Ev, .-_ZNSt10shared_ptrINSt13__future_base17_Async_state_implINSt6thread8_InvokerISt5tupleIJPFyRKSt6vectorIiSaIiEEmmmES7_mmmEEEEyEEED2Ev
	.weak	_ZNSt10shared_ptrINSt13__future_base17_Async_state_implINSt6thread8_InvokerISt5tupleIJPFyRKSt6vectorIiSaIiEEmmmES7_mmmEEEEyEEED1Ev
	.set	_ZNSt10shared_ptrINSt13__future_base17_Async_state_implINSt6thread8_InvokerISt5tupleIJPFyRKSt6vectorIiSaIiEEmmmES7_mmmEEEEyEEED1Ev,_ZNSt10shared_ptrINSt13__future_base17_Async_state_implINSt6thread8_InvokerISt5tupleIJPFyRKSt6vectorIiSaIiEEmmmES7_mmmEEEEyEEED2Ev
	.section	.text._ZNSt12__shared_ptrINSt13__future_base15_Deferred_stateINSt6thread8_InvokerISt5tupleIJPFyRKSt6vectorIiSaIiEEmmmES7_mmmEEEEyEELN9__gnu_cxx12_Lock_policyE2EED2Ev,"axG",@progbits,_ZNSt12__shared_ptrINSt13__future_base15_Deferred_stateINSt6thread8_InvokerISt5tupleIJPFyRKSt6vectorIiSaIiEEmmmES7_mmmEEEEyEELN9__gnu_cxx12_Lock_policyE2EED5Ev,comdat
	.align 2
	.weak	_ZNSt12__shared_ptrINSt13__future_base15_Deferred_stateINSt6thread8_InvokerISt5tupleIJPFyRKSt6vectorIiSaIiEEmmmES7_mmmEEEEyEELN9__gnu_cxx12_Lock_policyE2EED2Ev
	.type	_ZNSt12__shared_ptrINSt13__future_base15_Deferred_stateINSt6thread8_InvokerISt5tupleIJPFyRKSt6vectorIiSaIiEEmmmES7_mmmEEEEyEELN9__gnu_cxx12_Lock_policyE2EED2Ev, @function
_ZNSt12__shared_ptrINSt13__future_base15_Deferred_stateINSt6thread8_InvokerISt5tupleIJPFyRKSt6vectorIiSaIiEEmmmES7_mmmEEEEyEELN9__gnu_cxx12_Lock_policyE2EED2Ev:
.LFB6600:
	.cfi_startproc
	pushq	%rbp	#
	.cfi_def_cfa_offset 16
	.cfi_offset 6, -16
	movq	%rsp, %rbp	#,
	.cfi_def_cfa_register 6
	subq	$16, %rsp	#,
	movq	%rdi, -8(%rbp)	# this, this
# /usr/include/c++/11.3.0/bits/shared_ptr_base.h:1154:       ~__shared_ptr() = default;
	movq	-8(%rbp), %rax	# this, tmp83
	addq	$8, %rax	#, _1
	movq	%rax, %rdi	# _1,
	call	_ZNSt14__shared_countILN9__gnu_cxx12_Lock_policyE2EED1Ev	#
	nop	
	leave	
	.cfi_def_cfa 7, 8
	ret	
	.cfi_endproc
.LFE6600:
	.size	_ZNSt12__shared_ptrINSt13__future_base15_Deferred_stateINSt6thread8_InvokerISt5tupleIJPFyRKSt6vectorIiSaIiEEmmmES7_mmmEEEEyEELN9__gnu_cxx12_Lock_policyE2EED2Ev, .-_ZNSt12__shared_ptrINSt13__future_base15_Deferred_stateINSt6thread8_InvokerISt5tupleIJPFyRKSt6vectorIiSaIiEEmmmES7_mmmEEEEyEELN9__gnu_cxx12_Lock_policyE2EED2Ev
	.weak	_ZNSt12__shared_ptrINSt13__future_base15_Deferred_stateINSt6thread8_InvokerISt5tupleIJPFyRKSt6vectorIiSaIiEEmmmES7_mmmEEEEyEELN9__gnu_cxx12_Lock_policyE2EED1Ev
	.set	_ZNSt12__shared_ptrINSt13__future_base15_Deferred_stateINSt6thread8_InvokerISt5tupleIJPFyRKSt6vectorIiSaIiEEmmmES7_mmmEEEEyEELN9__gnu_cxx12_Lock_policyE2EED1Ev,_ZNSt12__shared_ptrINSt13__future_base15_Deferred_stateINSt6thread8_InvokerISt5tupleIJPFyRKSt6vectorIiSaIiEEmmmES7_mmmEEEEyEELN9__gnu_cxx12_Lock_policyE2EED2Ev
	.section	.text._ZNSt10shared_ptrINSt13__future_base15_Deferred_stateINSt6thread8_InvokerISt5tupleIJPFyRKSt6vectorIiSaIiEEmmmES7_mmmEEEEyEEED2Ev,"axG",@progbits,_ZNSt10shared_ptrINSt13__future_base15_Deferred_stateINSt6thread8_InvokerISt5tupleIJPFyRKSt6vectorIiSaIiEEmmmES7_mmmEEEEyEEED5Ev,comdat
	.align 2
	.weak	_ZNSt10shared_ptrINSt13__future_base15_Deferred_stateINSt6thread8_InvokerISt5tupleIJPFyRKSt6vectorIiSaIiEEmmmES7_mmmEEEEyEEED2Ev
	.type	_ZNSt10shared_ptrINSt13__future_base15_Deferred_stateINSt6thread8_InvokerISt5tupleIJPFyRKSt6vectorIiSaIiEEmmmES7_mmmEEEEyEEED2Ev, @function
_ZNSt10shared_ptrINSt13__future_base15_Deferred_stateINSt6thread8_InvokerISt5tupleIJPFyRKSt6vectorIiSaIiEEmmmES7_mmmEEEEyEEED2Ev:
.LFB6602:
	.cfi_startproc
	pushq	%rbp	#
	.cfi_def_cfa_offset 16
	.cfi_offset 6, -16
	movq	%rsp, %rbp	#,
	.cfi_def_cfa_register 6
	subq	$16, %rsp	#,
	movq	%rdi, -8(%rbp)	# this, this
# /usr/include/c++/11.3.0/bits/shared_ptr.h:122:     class shared_ptr : public __shared_ptr<_Tp>
	movq	-8(%rbp), %rax	# this, _1
	movq	%rax, %rdi	# _1,
	call	_ZNSt12__shared_ptrINSt13__future_base15_Deferred_stateINSt6thread8_InvokerISt5tupleIJPFyRKSt6vectorIiSaIiEEmmmES7_mmmEEEEyEELN9__gnu_cxx12_Lock_policyE2EED2Ev	#
	nop	
	leave	
	.cfi_def_cfa 7, 8
	ret	
	.cfi_endproc
.LFE6602:
	.size	_ZNSt10shared_ptrINSt13__future_base15_Deferred_stateINSt6thread8_InvokerISt5tupleIJPFyRKSt6vectorIiSaIiEEmmmES7_mmmEEEEyEEED2Ev, .-_ZNSt10shared_ptrINSt13__future_base15_Deferred_stateINSt6thread8_InvokerISt5tupleIJPFyRKSt6vectorIiSaIiEEmmmES7_mmmEEEEyEEED2Ev
	.weak	_ZNSt10shared_ptrINSt13__future_base15_Deferred_stateINSt6thread8_InvokerISt5tupleIJPFyRKSt6vectorIiSaIiEEmmmES7_mmmEEEEyEEED1Ev
	.set	_ZNSt10shared_ptrINSt13__future_base15_Deferred_stateINSt6thread8_InvokerISt5tupleIJPFyRKSt6vectorIiSaIiEEmmmES7_mmmEEEEyEEED1Ev,_ZNSt10shared_ptrINSt13__future_base15_Deferred_stateINSt6thread8_InvokerISt5tupleIJPFyRKSt6vectorIiSaIiEEmmmES7_mmmEEEEyEEED2Ev
	.section	.text._ZSt5asyncIRFyRKSt6vectorIiSaIiEEmmmEJS4_RmRKmmEESt6futureINSt15__invoke_resultINSt5decayIT_E4typeEJDpNSC_IT0_E4typeEEE4typeEESt6launchOSD_DpOSG_,"axG",@progbits,_ZSt5asyncIRFyRKSt6vectorIiSaIiEEmmmEJS4_RmRKmmEESt6futureINSt15__invoke_resultINSt5decayIT_E4typeEJDpNSC_IT0_E4typeEEE4typeEESt6launchOSD_DpOSG_,comdat
	.weak	_ZSt5asyncIRFyRKSt6vectorIiSaIiEEmmmEJS4_RmRKmmEESt6futureINSt15__invoke_resultINSt5decayIT_E4typeEJDpNSC_IT0_E4typeEEE4typeEESt6launchOSD_DpOSG_
	.type	_ZSt5asyncIRFyRKSt6vectorIiSaIiEEmmmEJS4_RmRKmmEESt6futureINSt15__invoke_resultINSt5decayIT_E4typeEJDpNSC_IT0_E4typeEEE4typeEESt6launchOSD_DpOSG_, @function
_ZSt5asyncIRFyRKSt6vectorIiSaIiEEmmmEJS4_RmRKmmEESt6futureINSt15__invoke_resultINSt5decayIT_E4typeEJDpNSC_IT0_E4typeEEE4typeEESt6launchOSD_DpOSG_:
.LFB6566:
	.cfi_startproc
	.cfi_personality 0x9b,DW.ref.__gxx_personality_v0
	.cfi_lsda 0x1b,.LLSDA6566
	pushq	%rbp	#
	.cfi_def_cfa_offset 16
	.cfi_offset 6, -16
	movq	%rsp, %rbp	#,
	.cfi_def_cfa_register 6
	pushq	%r14	#
	pushq	%r13	#
	pushq	%r12	#
	pushq	%rbx	#
	subq	$144, %rsp	#,
	.cfi_offset 14, -24
	.cfi_offset 13, -32
	.cfi_offset 12, -40
	.cfi_offset 3, -48
	movq	%rdi, -120(%rbp)	# .result_ptr, .result_ptr
	movl	%esi, -124(%rbp)	# __policy, __policy
	movq	%rdx, -136(%rbp)	# __fn, __fn
	movq	%rcx, -144(%rbp)	# __args#0, __args#0
	movq	%r8, -152(%rbp)	# __args#1, __args#1
	movq	%r9, -160(%rbp)	# __args#2, __args#2
	movq	16(%rbp), %rax	# __args#3, tmp106
	movq	%rax, -168(%rbp)	# tmp106, __args#3
# /usr/include/c++/11.3.0/future:1757:     async(launch __policy, _Fn&& __fn, _Args&&... __args)
	movq	%fs:40, %rax	# MEM[(<address-space-1> long unsigned int *)40B], tmp141
	movq	%rax, -40(%rbp)	# tmp141, D.192868
	xorl	%eax, %eax	# tmp141
# /usr/include/c++/11.3.0/future:1763:       std::shared_ptr<__future_base::_State_base> __state;
	movq	$0, -96(%rbp)	#, __state
	movq	$0, -88(%rbp)	#, __state
# /usr/include/c++/11.3.0/future:1764:       if ((__policy & launch::async) == launch::async)
	movl	-124(%rbp), %eax	# __policy, tmp107
	movl	$1, %esi	#,
	movl	%eax, %edi	# tmp107,
	call	_ZStanSt6launchS_	#
# /usr/include/c++/11.3.0/future:1764:       if ((__policy & launch::async) == launch::async)
	cmpl	$1, %eax	#, _1
	sete	%al	#, retval.8_29
# /usr/include/c++/11.3.0/future:1764:       if ((__policy & launch::async) == launch::async)
	testb	%al, %al	# retval.8_29
	je	.L313	#,
# /usr/include/c++/11.3.0/future:1768: 	      __state = std::make_shared<_As>(std::forward<_Fn>(__fn),
	movq	-168(%rbp), %rax	# __args#3, tmp108
	movq	%rax, %rdi	# tmp108,
	call	_ZSt7forwardImEOT_RNSt16remove_referenceIS0_E4typeE	#
	movq	%rax, %r14	#, _2
	movq	-160(%rbp), %rax	# __args#2, tmp109
	movq	%rax, %rdi	# tmp109,
	call	_ZSt7forwardIRKmEOT_RNSt16remove_referenceIS2_E4typeE	#
	movq	%rax, %r13	#, _3
	movq	-152(%rbp), %rax	# __args#1, tmp110
	movq	%rax, %rdi	# tmp110,
	call	_ZSt7forwardIRmEOT_RNSt16remove_referenceIS1_E4typeE	#
	movq	%rax, %r12	#, _4
	movq	-144(%rbp), %rax	# __args#0, tmp111
	movq	%rax, %rdi	# tmp111,
	call	_ZSt7forwardIRKSt6vectorIiSaIiEEEOT_RNSt16remove_referenceIS5_E4typeE	#
	movq	%rax, %rbx	#, _5
	movq	-136(%rbp), %rax	# __fn, tmp112
	movq	%rax, %rdi	# tmp112,
	call	_ZSt7forwardIRFyRKSt6vectorIiSaIiEEmmmEEOT_RNSt16remove_referenceIS7_E4typeE	#
	movq	%rax, %rsi	#, _6
	leaq	-80(%rbp), %rax	#, tmp113
	movq	%r14, %r9	# _2,
	movq	%r13, %r8	# _3,
	movq	%r12, %rcx	# _4,
	movq	%rbx, %rdx	# _5,
	movq	%rax, %rdi	# tmp113,
.LEHB13:
	call	_ZSt11make_sharedINSt13__future_base17_Async_state_implINSt6thread8_InvokerISt5tupleIJPFyRKSt6vectorIiSaIiEEmmmES7_mmmEEEEyEEJRSA_S9_RmRKmmEESt10shared_ptrIT_EDpOT0_	#
.LEHE13:
# /usr/include/c++/11.3.0/future:1768: 	      __state = std::make_shared<_As>(std::forward<_Fn>(__fn),
	leaq	-80(%rbp), %rdx	#, tmp114
	leaq	-96(%rbp), %rax	#, tmp115
	movq	%rdx, %rsi	# tmp114,
	movq	%rax, %rdi	# tmp115,
	call	_ZNSt10shared_ptrINSt13__future_base13_State_baseV2EEaSINS0_17_Async_state_implINSt6thread8_InvokerISt5tupleIJPFyRKSt6vectorIiSaIiEEmmmESA_mmmEEEEyEEEENSt9enable_ifIXsrSt13is_assignableIRSt12__shared_ptrIS1_LN9__gnu_cxx12_Lock_policyE2EES_IT_EE5valueERS2_E4typeEOSQ_	#
	leaq	-80(%rbp), %rax	#, tmp116
	movq	%rax, %rdi	# tmp116,
	call	_ZNSt10shared_ptrINSt13__future_base17_Async_state_implINSt6thread8_InvokerISt5tupleIJPFyRKSt6vectorIiSaIiEEmmmES7_mmmEEEEyEEED1Ev	#
.L313:
# /usr/include/c++/11.3.0/future:1780:       if (!__state)
	leaq	-96(%rbp), %rax	#, tmp117
	movq	%rax, %rdi	# tmp117,
	call	_ZNKSt12__shared_ptrINSt13__future_base13_State_baseV2ELN9__gnu_cxx12_Lock_policyE2EEcvbEv	#
	xorl	$1, %eax	#, retval.11_59
# /usr/include/c++/11.3.0/future:1780:       if (!__state)
	testb	%al, %al	# retval.11_59
	je	.L314	#,
# /usr/include/c++/11.3.0/future:1782: 	  __state = std::make_shared<_Ds>(std::forward<_Fn>(__fn),
	movq	-168(%rbp), %rax	# __args#3, tmp118
	movq	%rax, %rdi	# tmp118,
	call	_ZSt7forwardImEOT_RNSt16remove_referenceIS0_E4typeE	#
	movq	%rax, %r14	#, _13
	movq	-160(%rbp), %rax	# __args#2, tmp119
	movq	%rax, %rdi	# tmp119,
	call	_ZSt7forwardIRKmEOT_RNSt16remove_referenceIS2_E4typeE	#
	movq	%rax, %r13	#, _14
	movq	-152(%rbp), %rax	# __args#1, tmp120
	movq	%rax, %rdi	# tmp120,
	call	_ZSt7forwardIRmEOT_RNSt16remove_referenceIS1_E4typeE	#
	movq	%rax, %r12	#, _15
	movq	-144(%rbp), %rax	# __args#0, tmp121
	movq	%rax, %rdi	# tmp121,
	call	_ZSt7forwardIRKSt6vectorIiSaIiEEEOT_RNSt16remove_referenceIS5_E4typeE	#
	movq	%rax, %rbx	#, _16
	movq	-136(%rbp), %rax	# __fn, tmp122
	movq	%rax, %rdi	# tmp122,
	call	_ZSt7forwardIRFyRKSt6vectorIiSaIiEEmmmEEOT_RNSt16remove_referenceIS7_E4typeE	#
	movq	%rax, %rsi	#, _17
	leaq	-64(%rbp), %rax	#, tmp123
	movq	%r14, %r9	# _13,
	movq	%r13, %r8	# _14,
	movq	%r12, %rcx	# _15,
	movq	%rbx, %rdx	# _16,
	movq	%rax, %rdi	# tmp123,
.LEHB14:
	call	_ZSt11make_sharedINSt13__future_base15_Deferred_stateINSt6thread8_InvokerISt5tupleIJPFyRKSt6vectorIiSaIiEEmmmES7_mmmEEEEyEEJRSA_S9_RmRKmmEESt10shared_ptrIT_EDpOT0_	#
# /usr/include/c++/11.3.0/future:1782: 	  __state = std::make_shared<_Ds>(std::forward<_Fn>(__fn),
	leaq	-64(%rbp), %rdx	#, tmp124
	leaq	-96(%rbp), %rax	#, tmp125
	movq	%rdx, %rsi	# tmp124,
	movq	%rax, %rdi	# tmp125,
	call	_ZNSt10shared_ptrINSt13__future_base13_State_baseV2EEaSINS0_15_Deferred_stateINSt6thread8_InvokerISt5tupleIJPFyRKSt6vectorIiSaIiEEmmmESA_mmmEEEEyEEEENSt9enable_ifIXsrSt13is_assignableIRSt12__shared_ptrIS1_LN9__gnu_cxx12_Lock_policyE2EES_IT_EE5valueERS2_E4typeEOSQ_	#
	leaq	-64(%rbp), %rax	#, tmp126
	movq	%rax, %rdi	# tmp126,
	call	_ZNSt10shared_ptrINSt13__future_base15_Deferred_stateINSt6thread8_InvokerISt5tupleIJPFyRKSt6vectorIiSaIiEEmmmES7_mmmEEEEyEEED1Ev	#
.L314:
# /usr/include/c++/11.3.0/future:1785:       return future<__async_result_of<_Fn, _Args...>>(std::move(__state));
	leaq	-96(%rbp), %rax	#, tmp127
	movq	%rax, %rdi	# tmp127,
	call	_ZSt4moveIRSt10shared_ptrINSt13__future_base13_State_baseV2EEEONSt16remove_referenceIT_E4typeEOS6_	#
	movq	%rax, %rdx	#, _18
# /usr/include/c++/11.3.0/future:1785:       return future<__async_result_of<_Fn, _Args...>>(std::move(__state));
	movq	-120(%rbp), %rax	# <retval>, tmp128
	movq	%rdx, %rsi	# _18,
	movq	%rax, %rdi	# tmp128,
	call	_ZNSt6futureIyEC1ERKSt10shared_ptrINSt13__future_base13_State_baseV2EE	#
.LEHE14:
	nop	
# /usr/include/c++/11.3.0/future:1786:     }
	leaq	-96(%rbp), %rax	#, tmp129
	movq	%rax, %rdi	# tmp129,
	call	_ZNSt10shared_ptrINSt13__future_base13_State_baseV2EED1Ev	#
# /usr/include/c++/11.3.0/future:1785:       return future<__async_result_of<_Fn, _Args...>>(std::move(__state));
	nop	
# /usr/include/c++/11.3.0/future:1786:     }
	movq	-40(%rbp), %rax	# D.192868, tmp142
	subq	%fs:40, %rax	# MEM[(<address-space-1> long unsigned int *)40B], tmp142
	je	.L324	#,
	jmp	.L328	#
.L325:
# /usr/include/c++/11.3.0/future:1772: 	  catch(const system_error& __e)
	cmpq	$1, %rdx	#, D.192865
	je	.L317	#,
	movq	%rax, %rbx	# tmp132, tmp131
	jmp	.L318	#
.L317:
# /usr/include/c++/11.3.0/future:1772: 	  catch(const system_error& __e)
	movq	%rax, %rdi	# _7,
	call	__cxa_begin_catch@PLT	#
# /usr/include/c++/11.3.0/future:1772: 	  catch(const system_error& __e)
	movq	%rax, -104(%rbp)	# _45, __e
# /usr/include/c++/11.3.0/future:1774: 	      if (__e.code() != errc::resource_unavailable_try_again
	leaq	-64(%rbp), %rax	#, tmp134
	movl	$11, %esi	#,
	movq	%rax, %rdi	# tmp134,
	call	_ZNSt15error_conditionC1ISt4errcvEET_	#
	movq	-104(%rbp), %rax	# __e, tmp135
	movq	%rax, %rdi	# tmp135,
	call	_ZNKSt12system_error4codeEv	#
	movq	%rax, %rdx	#, _8
	leaq	-64(%rbp), %rax	#, tmp136
	movq	%rax, %rsi	# tmp136,
	movq	%rdx, %rdi	# _8,
	call	_ZSteqRKSt10error_codeRKSt15error_condition	#
	xorl	$1, %eax	#, _10
# /usr/include/c++/11.3.0/future:1775: 		  || (__policy & launch::deferred) != launch::deferred)
	testb	%al, %al	# _10
	jne	.L319	#,
# /usr/include/c++/11.3.0/future:1775: 		  || (__policy & launch::deferred) != launch::deferred)
	movl	-124(%rbp), %eax	# __policy, tmp137
	movl	$2, %esi	#,
	movl	%eax, %edi	# tmp137,
	call	_ZStanSt6launchS_	#
# /usr/include/c++/11.3.0/future:1775: 		  || (__policy & launch::deferred) != launch::deferred)
	cmpl	$2, %eax	#, _11
	je	.L320	#,
.L319:
# /usr/include/c++/11.3.0/future:1775: 		  || (__policy & launch::deferred) != launch::deferred)
	movl	$1, %eax	#, iftmp.10_19
	jmp	.L321	#
.L320:
# /usr/include/c++/11.3.0/future:1775: 		  || (__policy & launch::deferred) != launch::deferred)
	movl	$0, %eax	#, iftmp.10_19
.L321:
# /usr/include/c++/11.3.0/future:1774: 	      if (__e.code() != errc::resource_unavailable_try_again
	testb	%al, %al	# iftmp.10_19
	je	.L322	#,
.LEHB15:
# /usr/include/c++/11.3.0/future:1776: 		throw;
	call	__cxa_rethrow@PLT	#
.LEHE15:
.L322:
# /usr/include/c++/11.3.0/future:1772: 	  catch(const system_error& __e)
	call	__cxa_end_catch@PLT	#
	jmp	.L313	#
.L327:
	movq	%rax, %rbx	#, tmp138
	call	__cxa_end_catch@PLT	#
	jmp	.L318	#
.L326:
# /usr/include/c++/11.3.0/future:1786:     }
	movq	%rax, %rbx	#, tmp131
.L318:
	leaq	-96(%rbp), %rax	#, tmp140
	movq	%rax, %rdi	# tmp140,
	call	_ZNSt10shared_ptrINSt13__future_base13_State_baseV2EED1Ev	#
	movq	%rbx, %rax	# tmp131, D.192866
	movq	%rax, %rdi	# D.192866,
.LEHB16:
	call	_Unwind_Resume@PLT	#
.LEHE16:
.L328:
	call	__stack_chk_fail@PLT	#
.L324:
	movq	-120(%rbp), %rax	# <retval>,
	addq	$144, %rsp	#,
	popq	%rbx	#
	popq	%r12	#
	popq	%r13	#
	popq	%r14	#
	popq	%rbp	#
	.cfi_def_cfa 7, 8
	ret	
	.cfi_endproc
.LFE6566:
	.section	.gcc_except_table
	.align 4
.LLSDA6566:
	.byte	0xff
	.byte	0x9b
	.uleb128 .LLSDATT6566-.LLSDATTD6566
.LLSDATTD6566:
	.byte	0x1
	.uleb128 .LLSDACSE6566-.LLSDACSB6566
.LLSDACSB6566:
	.uleb128 .LEHB13-.LFB6566
	.uleb128 .LEHE13-.LEHB13
	.uleb128 .L325-.LFB6566
	.uleb128 0x3
	.uleb128 .LEHB14-.LFB6566
	.uleb128 .LEHE14-.LEHB14
	.uleb128 .L326-.LFB6566
	.uleb128 0
	.uleb128 .LEHB15-.LFB6566
	.uleb128 .LEHE15-.LEHB15
	.uleb128 .L327-.LFB6566
	.uleb128 0
	.uleb128 .LEHB16-.LFB6566
